
MisterE.elf:     file format elf32-avr

Sections:
Idx Name          Size      VMA       LMA       File off  Algn
  0 .text         0000115c  00000000  00000000  00000094  2**1
                  CONTENTS, ALLOC, LOAD, READONLY, CODE
  1 .data         00000118  00800060  0000115c  000011f0  2**0
                  CONTENTS, ALLOC, LOAD, DATA
  2 .bss          0000000d  00800178  00001274  00001308  2**0
                  ALLOC
  3 .eeprom       00000001  00810000  00810000  00001308  2**0
                  CONTENTS, ALLOC, LOAD, DATA
  4 .stab         00000378  00000000  00000000  0000130c  2**2
                  CONTENTS, READONLY, DEBUGGING
  5 .stabstr      0000005f  00000000  00000000  00001684  2**0
                  CONTENTS, READONLY, DEBUGGING
  6 .debug_aranges 000000a0  00000000  00000000  000016e3  2**0
                  CONTENTS, READONLY, DEBUGGING
  7 .debug_pubnames 0000054c  00000000  00000000  00001783  2**0
                  CONTENTS, READONLY, DEBUGGING
  8 .debug_info   00000ff1  00000000  00000000  00001ccf  2**0
                  CONTENTS, READONLY, DEBUGGING
  9 .debug_abbrev 000004f1  00000000  00000000  00002cc0  2**0
                  CONTENTS, READONLY, DEBUGGING
 10 .debug_line   0000103b  00000000  00000000  000031b1  2**0
                  CONTENTS, READONLY, DEBUGGING
 11 .debug_frame  00000410  00000000  00000000  000041ec  2**2
                  CONTENTS, READONLY, DEBUGGING
 12 .debug_str    000006a3  00000000  00000000  000045fc  2**0
                  CONTENTS, READONLY, DEBUGGING
 13 .debug_loc    000005f3  00000000  00000000  00004c9f  2**0
                  CONTENTS, READONLY, DEBUGGING
Disassembly of section .text:

00000000 <__vectors>:
       0:	12 c0       	rjmp	.+36     	; 0x26 <__ctors_end>
       2:	2c c0       	rjmp	.+88     	; 0x5c <__bad_interrupt>
       4:	2b c0       	rjmp	.+86     	; 0x5c <__bad_interrupt>
       6:	2a c0       	rjmp	.+84     	; 0x5c <__bad_interrupt>
       8:	29 c0       	rjmp	.+82     	; 0x5c <__bad_interrupt>
       a:	28 c0       	rjmp	.+80     	; 0x5c <__bad_interrupt>
       c:	27 c0       	rjmp	.+78     	; 0x5c <__bad_interrupt>
       e:	26 c0       	rjmp	.+76     	; 0x5c <__bad_interrupt>
      10:	25 c0       	rjmp	.+74     	; 0x5c <__bad_interrupt>
      12:	24 c0       	rjmp	.+72     	; 0x5c <__bad_interrupt>
      14:	23 c0       	rjmp	.+70     	; 0x5c <__bad_interrupt>
      16:	22 c0       	rjmp	.+68     	; 0x5c <__bad_interrupt>
      18:	21 c0       	rjmp	.+66     	; 0x5c <__bad_interrupt>
      1a:	20 c0       	rjmp	.+64     	; 0x5c <__bad_interrupt>
      1c:	1f c0       	rjmp	.+62     	; 0x5c <__bad_interrupt>
      1e:	1e c0       	rjmp	.+60     	; 0x5c <__bad_interrupt>
      20:	1d c0       	rjmp	.+58     	; 0x5c <__bad_interrupt>
      22:	1c c0       	rjmp	.+56     	; 0x5c <__bad_interrupt>
      24:	1b c0       	rjmp	.+54     	; 0x5c <__bad_interrupt>

00000026 <__ctors_end>:
      26:	11 24       	eor	r1, r1
      28:	1f be       	out	0x3f, r1	; 63
      2a:	cf e5       	ldi	r28, 0x5F	; 95
      2c:	d4 e0       	ldi	r29, 0x04	; 4
      2e:	de bf       	out	0x3e, r29	; 62
      30:	cd bf       	out	0x3d, r28	; 61

00000032 <__do_copy_data>:
      32:	11 e0       	ldi	r17, 0x01	; 1
      34:	a0 e6       	ldi	r26, 0x60	; 96
      36:	b0 e0       	ldi	r27, 0x00	; 0
      38:	ec e5       	ldi	r30, 0x5C	; 92
      3a:	f1 e1       	ldi	r31, 0x11	; 17
      3c:	02 c0       	rjmp	.+4      	; 0x42 <.do_copy_data_start>

0000003e <.do_copy_data_loop>:
      3e:	05 90       	lpm	r0, Z+
      40:	0d 92       	st	X+, r0

00000042 <.do_copy_data_start>:
      42:	a8 37       	cpi	r26, 0x78	; 120
      44:	b1 07       	cpc	r27, r17
      46:	d9 f7       	brne	.-10     	; 0x3e <.do_copy_data_loop>

00000048 <__do_clear_bss>:
      48:	11 e0       	ldi	r17, 0x01	; 1
      4a:	a8 e7       	ldi	r26, 0x78	; 120
      4c:	b1 e0       	ldi	r27, 0x01	; 1
      4e:	01 c0       	rjmp	.+2      	; 0x52 <.do_clear_bss_start>

00000050 <.do_clear_bss_loop>:
      50:	1d 92       	st	X+, r1

00000052 <.do_clear_bss_start>:
      52:	a5 38       	cpi	r26, 0x85	; 133
      54:	b1 07       	cpc	r27, r17
      56:	e1 f7       	brne	.-8      	; 0x50 <.do_clear_bss_loop>
      58:	25 d3       	rcall	.+1610   	; 0x6a4 <main>
      5a:	7f c8       	rjmp	.-3842   	; 0xfffff15a <__eeprom_end+0xff7ef159>

0000005c <__bad_interrupt>:
      5c:	d1 cf       	rjmp	.-94     	; 0x0 <__vectors>

0000005e <ReadByteFromEeprom>:
      5e:	a0 e0       	ldi	r26, 0x00	; 0
      60:	b0 e0       	ldi	r27, 0x00	; 0
      62:	0b d8       	rcall	.-4074   	; 0xfffff07a <__eeprom_end+0xff7ef079>
      64:	80 2d       	mov	r24, r0
      66:	90 e0       	ldi	r25, 0x00	; 0
      68:	08 95       	ret

0000006a <WriteByteToEeprom>:
      6a:	a0 e0       	ldi	r26, 0x00	; 0
      6c:	b0 e0       	ldi	r27, 0x00	; 0
      6e:	08 2e       	mov	r0, r24
      70:	0c d8       	rcall	.-4072   	; 0xfffff08a <__eeprom_end+0xff7ef089>
      72:	08 95       	ret

00000074 <InitLEDs>:
      74:	bb 9a       	sbi	0x17, 3	; 23
      76:	bd 9a       	sbi	0x17, 5	; 23
      78:	bc 9a       	sbi	0x17, 4	; 23
      7a:	08 95       	ret

0000007c <ShowLEDvalue>:
      7c:	c3 98       	cbi	0x18, 3	; 24
      7e:	c5 98       	cbi	0x18, 5	; 24
      80:	c4 98       	cbi	0x18, 4	; 24
      82:	82 30       	cpi	r24, 0x02	; 2
      84:	91 05       	cpc	r25, r1
      86:	49 f0       	breq	.+18     	; 0x9a <ShowLEDvalue+0x1e>
      88:	83 30       	cpi	r24, 0x03	; 3
      8a:	91 05       	cpc	r25, r1
      8c:	21 f0       	breq	.+8      	; 0x96 <ShowLEDvalue+0x1a>
      8e:	81 30       	cpi	r24, 0x01	; 1
      90:	91 05       	cpc	r25, r1
      92:	39 f4       	brne	.+14     	; 0xa2 <ShowLEDvalue+0x26>
      94:	04 c0       	rjmp	.+8      	; 0x9e <ShowLEDvalue+0x22>
      96:	c3 9a       	sbi	0x18, 3	; 24
      98:	08 95       	ret
      9a:	c5 9a       	sbi	0x18, 5	; 24
      9c:	08 95       	ret
      9e:	c4 9a       	sbi	0x18, 4	; 24
      a0:	08 95       	ret
      a2:	04 97       	sbiw	r24, 0x04	; 4
      a4:	1c f0       	brlt	.+6      	; 0xac <ShowLEDvalue+0x30>
      a6:	c3 9a       	sbi	0x18, 3	; 24
      a8:	c5 9a       	sbi	0x18, 5	; 24
      aa:	c4 9a       	sbi	0x18, 4	; 24
      ac:	08 95       	ret

000000ae <InitJumpers>:
      ae:	ba 98       	cbi	0x17, 2	; 23
      b0:	c2 9a       	sbi	0x18, 2	; 24
      b2:	b9 98       	cbi	0x17, 1	; 23
      b4:	c1 9a       	sbi	0x18, 1	; 24
      b6:	08 95       	ret

000000b8 <InitializeDistance>:
      b8:	a5 9a       	sbi	0x14, 5	; 20
      ba:	a4 98       	cbi	0x14, 4	; 20
      bc:	ac 9a       	sbi	0x15, 4	; 21
      be:	ad 9a       	sbi	0x15, 5	; 21
      c0:	08 95       	ret

000000c2 <IsCloseEnough>:
      c2:	84 17       	cp	r24, r20
      c4:	95 07       	cpc	r25, r21
      c6:	1c f0       	brlt	.+6      	; 0xce <IsCloseEnough+0xc>
      c8:	40 e0       	ldi	r20, 0x00	; 0
      ca:	50 e0       	ldi	r21, 0x00	; 0
      cc:	05 c0       	rjmp	.+10     	; 0xd8 <IsCloseEnough+0x16>
      ce:	46 17       	cp	r20, r22
      d0:	57 07       	cpc	r21, r23
      d2:	14 f0       	brlt	.+4      	; 0xd8 <IsCloseEnough+0x16>
      d4:	41 e0       	ldi	r20, 0x01	; 1
      d6:	50 e0       	ldi	r21, 0x00	; 0
      d8:	ca 01       	movw	r24, r20
      da:	08 95       	ret

000000dc <delayms>:
      dc:	9c 01       	movw	r18, r24
      de:	89 2b       	or	r24, r25
      e0:	39 f0       	breq	.+14     	; 0xf0 <delayms+0x14>
      e2:	80 ed       	ldi	r24, 0xD0	; 208
      e4:	97 e0       	ldi	r25, 0x07	; 7
      e6:	01 97       	sbiw	r24, 0x01	; 1
      e8:	f1 f7       	brne	.-4      	; 0xe6 <delayms+0xa>
      ea:	21 50       	subi	r18, 0x01	; 1
      ec:	30 40       	sbci	r19, 0x00	; 0
      ee:	c9 f7       	brne	.-14     	; 0xe2 <delayms+0x6>
      f0:	08 95       	ret

000000f2 <BlinkAll>:
      f2:	c3 9a       	sbi	0x18, 3	; 24
      f4:	c5 9a       	sbi	0x18, 5	; 24
      f6:	c4 9a       	sbi	0x18, 4	; 24
      f8:	84 ef       	ldi	r24, 0xF4	; 244
      fa:	91 e0       	ldi	r25, 0x01	; 1
      fc:	ef df       	rcall	.-34     	; 0xdc <delayms>
      fe:	c3 98       	cbi	0x18, 3	; 24
     100:	c5 98       	cbi	0x18, 5	; 24
     102:	c4 98       	cbi	0x18, 4	; 24
     104:	84 ef       	ldi	r24, 0xF4	; 244
     106:	91 e0       	ldi	r25, 0x01	; 1
     108:	e9 df       	rcall	.-46     	; 0xdc <delayms>
     10a:	08 95       	ret

0000010c <Delay>:
     10c:	08 95       	ret

0000010e <bit_get>:
     10e:	21 e0       	ldi	r18, 0x01	; 1
     110:	30 e0       	ldi	r19, 0x00	; 0
     112:	02 c0       	rjmp	.+4      	; 0x118 <bit_get+0xa>
     114:	22 0f       	add	r18, r18
     116:	33 1f       	adc	r19, r19
     118:	6a 95       	dec	r22
     11a:	e2 f7       	brpl	.-8      	; 0x114 <bit_get+0x6>
     11c:	80 95       	com	r24
     11e:	90 95       	com	r25
     120:	82 23       	and	r24, r18
     122:	93 23       	and	r25, r19
     124:	08 95       	ret

00000126 <GetDistance>:
     126:	0f 93       	push	r16
     128:	1f 93       	push	r17
     12a:	cf 93       	push	r28
     12c:	df 93       	push	r29
     12e:	ad 9a       	sbi	0x15, 5	; 21
     130:	84 e0       	ldi	r24, 0x04	; 4
     132:	90 e0       	ldi	r25, 0x00	; 0
     134:	d3 df       	rcall	.-90     	; 0xdc <delayms>
     136:	ad 98       	cbi	0x15, 5	; 21
     138:	c0 e0       	ldi	r28, 0x00	; 0
     13a:	d0 e0       	ldi	r29, 0x00	; 0
     13c:	81 e0       	ldi	r24, 0x01	; 1
     13e:	90 e0       	ldi	r25, 0x00	; 0
     140:	cd df       	rcall	.-102    	; 0xdc <delayms>
     142:	83 b3       	in	r24, 0x13	; 19
     144:	64 e0       	ldi	r22, 0x04	; 4
     146:	70 e0       	ldi	r23, 0x00	; 0
     148:	90 e0       	ldi	r25, 0x00	; 0
     14a:	e1 df       	rcall	.-62     	; 0x10e <bit_get>
     14c:	89 2b       	or	r24, r25
     14e:	21 f4       	brne	.+8      	; 0x158 <GetDistance+0x32>
     150:	21 96       	adiw	r28, 0x01	; 1
     152:	cf 31       	cpi	r28, 0x1F	; 31
     154:	d1 05       	cpc	r29, r1
     156:	91 f7       	brne	.-28     	; 0x13c <GetDistance+0x16>
     158:	ad 9a       	sbi	0x15, 5	; 21
     15a:	85 e8       	ldi	r24, 0x85	; 133
     15c:	8a 95       	dec	r24
     15e:	f1 f7       	brne	.-4      	; 0x15c <GetDistance+0x36>
     160:	00 e0       	ldi	r16, 0x00	; 0
     162:	10 e0       	ldi	r17, 0x00	; 0
     164:	c7 e0       	ldi	r28, 0x07	; 7
     166:	d0 e0       	ldi	r29, 0x00	; 0
     168:	ad 98       	cbi	0x15, 5	; 21
     16a:	85 e8       	ldi	r24, 0x85	; 133
     16c:	8a 95       	dec	r24
     16e:	f1 f7       	brne	.-4      	; 0x16c <GetDistance+0x46>
     170:	83 b3       	in	r24, 0x13	; 19
     172:	64 e0       	ldi	r22, 0x04	; 4
     174:	70 e0       	ldi	r23, 0x00	; 0
     176:	90 e0       	ldi	r25, 0x00	; 0
     178:	ca df       	rcall	.-108    	; 0x10e <bit_get>
     17a:	89 2b       	or	r24, r25
     17c:	69 f0       	breq	.+26     	; 0x198 <GetDistance+0x72>
     17e:	81 e0       	ldi	r24, 0x01	; 1
     180:	90 e0       	ldi	r25, 0x00	; 0
     182:	0c 2e       	mov	r0, r28
     184:	02 c0       	rjmp	.+4      	; 0x18a <GetDistance+0x64>
     186:	88 0f       	add	r24, r24
     188:	99 1f       	adc	r25, r25
     18a:	0a 94       	dec	r0
     18c:	e2 f7       	brpl	.-8      	; 0x186 <GetDistance+0x60>
     18e:	80 95       	com	r24
     190:	90 95       	com	r25
     192:	08 23       	and	r16, r24
     194:	19 23       	and	r17, r25
     196:	0a c0       	rjmp	.+20     	; 0x1ac <GetDistance+0x86>
     198:	81 e0       	ldi	r24, 0x01	; 1
     19a:	90 e0       	ldi	r25, 0x00	; 0
     19c:	0c 2e       	mov	r0, r28
     19e:	02 c0       	rjmp	.+4      	; 0x1a4 <GetDistance+0x7e>
     1a0:	88 0f       	add	r24, r24
     1a2:	99 1f       	adc	r25, r25
     1a4:	0a 94       	dec	r0
     1a6:	e2 f7       	brpl	.-8      	; 0x1a0 <GetDistance+0x7a>
     1a8:	08 2b       	or	r16, r24
     1aa:	19 2b       	or	r17, r25
     1ac:	ad 9a       	sbi	0x15, 5	; 21
     1ae:	85 e8       	ldi	r24, 0x85	; 133
     1b0:	8a 95       	dec	r24
     1b2:	f1 f7       	brne	.-4      	; 0x1b0 <GetDistance+0x8a>
     1b4:	21 97       	sbiw	r28, 0x01	; 1
     1b6:	8f ef       	ldi	r24, 0xFF	; 255
     1b8:	cf 3f       	cpi	r28, 0xFF	; 255
     1ba:	d8 07       	cpc	r29, r24
     1bc:	a9 f6       	brne	.-86     	; 0x168 <GetDistance+0x42>
     1be:	ad 9a       	sbi	0x15, 5	; 21
     1c0:	c8 01       	movw	r24, r16
     1c2:	df 91       	pop	r29
     1c4:	cf 91       	pop	r28
     1c6:	1f 91       	pop	r17
     1c8:	0f 91       	pop	r16
     1ca:	08 95       	ret

000001cc <GetJumperValue>:
     1cc:	86 b3       	in	r24, 0x16	; 22
     1ce:	61 e0       	ldi	r22, 0x01	; 1
     1d0:	70 e0       	ldi	r23, 0x00	; 0
     1d2:	90 e0       	ldi	r25, 0x00	; 0
     1d4:	9c df       	rcall	.-200    	; 0x10e <bit_get>
     1d6:	89 2b       	or	r24, r25
     1d8:	69 f0       	breq	.+26     	; 0x1f4 <GetJumperValue+0x28>
     1da:	86 b3       	in	r24, 0x16	; 22
     1dc:	62 e0       	ldi	r22, 0x02	; 2
     1de:	70 e0       	ldi	r23, 0x00	; 0
     1e0:	90 e0       	ldi	r25, 0x00	; 0
     1e2:	95 df       	rcall	.-214    	; 0x10e <bit_get>
     1e4:	89 2b       	or	r24, r25
     1e6:	19 f0       	breq	.+6      	; 0x1ee <GetJumperValue+0x22>
     1e8:	83 e0       	ldi	r24, 0x03	; 3
     1ea:	90 e0       	ldi	r25, 0x00	; 0
     1ec:	08 95       	ret
     1ee:	82 e0       	ldi	r24, 0x02	; 2
     1f0:	90 e0       	ldi	r25, 0x00	; 0
     1f2:	08 95       	ret
     1f4:	86 b3       	in	r24, 0x16	; 22
     1f6:	62 e0       	ldi	r22, 0x02	; 2
     1f8:	70 e0       	ldi	r23, 0x00	; 0
     1fa:	90 e0       	ldi	r25, 0x00	; 0
     1fc:	88 df       	rcall	.-240    	; 0x10e <bit_get>
     1fe:	89 2b       	or	r24, r25
     200:	19 f0       	breq	.+6      	; 0x208 <GetJumperValue+0x3c>
     202:	81 e0       	ldi	r24, 0x01	; 1
     204:	90 e0       	ldi	r25, 0x00	; 0
     206:	08 95       	ret
     208:	84 e0       	ldi	r24, 0x04	; 4
     20a:	90 e0       	ldi	r25, 0x00	; 0
     20c:	08 95       	ret

0000020e <BlinkANumber>:
     20e:	0f 93       	push	r16
     210:	1f 93       	push	r17
     212:	cf 93       	push	r28
     214:	df 93       	push	r29
     216:	8c 01       	movw	r16, r24
     218:	eb 01       	movw	r28, r22
     21a:	c3 98       	cbi	0x18, 3	; 24
     21c:	c5 98       	cbi	0x18, 5	; 24
     21e:	c4 98       	cbi	0x18, 4	; 24
     220:	8a ef       	ldi	r24, 0xFA	; 250
     222:	90 e0       	ldi	r25, 0x00	; 0
     224:	5b df       	rcall	.-330    	; 0xdc <delayms>
     226:	c3 98       	cbi	0x18, 3	; 24
     228:	c5 98       	cbi	0x18, 5	; 24
     22a:	c4 98       	cbi	0x18, 4	; 24
     22c:	01 50       	subi	r16, 0x01	; 1
     22e:	10 40       	sbci	r17, 0x00	; 0
     230:	ba f0       	brmi	.+46     	; 0x260 <BlinkANumber+0x52>
     232:	c3 98       	cbi	0x18, 3	; 24
     234:	c5 98       	cbi	0x18, 5	; 24
     236:	c4 98       	cbi	0x18, 4	; 24
     238:	8d e7       	ldi	r24, 0x7D	; 125
     23a:	90 e0       	ldi	r25, 0x00	; 0
     23c:	4f df       	rcall	.-354    	; 0xdc <delayms>
     23e:	c3 98       	cbi	0x18, 3	; 24
     240:	c5 98       	cbi	0x18, 5	; 24
     242:	c4 98       	cbi	0x18, 4	; 24
     244:	b8 01       	movw	r22, r16
     246:	ce 01       	movw	r24, r28
     248:	62 df       	rcall	.-316    	; 0x10e <bit_get>
     24a:	89 2b       	or	r24, r25
     24c:	11 f0       	breq	.+4      	; 0x252 <BlinkANumber+0x44>
     24e:	c3 9a       	sbi	0x18, 3	; 24
     250:	01 c0       	rjmp	.+2      	; 0x254 <BlinkANumber+0x46>
     252:	c4 9a       	sbi	0x18, 4	; 24
     254:	8a ef       	ldi	r24, 0xFA	; 250
     256:	90 e0       	ldi	r25, 0x00	; 0
     258:	41 df       	rcall	.-382    	; 0xdc <delayms>
     25a:	01 50       	subi	r16, 0x01	; 1
     25c:	10 40       	sbci	r17, 0x00	; 0
     25e:	4a f7       	brpl	.-46     	; 0x232 <BlinkANumber+0x24>
     260:	c3 98       	cbi	0x18, 3	; 24
     262:	c5 98       	cbi	0x18, 5	; 24
     264:	c4 98       	cbi	0x18, 4	; 24
     266:	8e ee       	ldi	r24, 0xEE	; 238
     268:	92 e0       	ldi	r25, 0x02	; 2
     26a:	38 df       	rcall	.-400    	; 0xdc <delayms>
     26c:	df 91       	pop	r29
     26e:	cf 91       	pop	r28
     270:	1f 91       	pop	r17
     272:	0f 91       	pop	r16
     274:	08 95       	ret

00000276 <IFeelDifferent>:
     276:	40 e0       	ldi	r20, 0x00	; 0
     278:	20 91 7e 01 	lds	r18, 0x017E
     27c:	30 91 7f 01 	lds	r19, 0x017F
     280:	82 17       	cp	r24, r18
     282:	93 07       	cpc	r25, r19
     284:	09 f4       	brne	.+2      	; 0x288 <IFeelDifferent+0x12>
     286:	41 e0       	ldi	r20, 0x01	; 1
     288:	81 e0       	ldi	r24, 0x01	; 1
     28a:	84 27       	eor	r24, r20
     28c:	90 e0       	ldi	r25, 0x00	; 0
     28e:	08 95       	ret

00000290 <IndicateJumperViaLED>:
     290:	9d df       	rcall	.-198    	; 0x1cc <GetJumperValue>
     292:	f4 de       	rcall	.-536    	; 0x7c <ShowLEDvalue>
     294:	08 95       	ret

00000296 <DebugMode>:
     296:	47 df       	rcall	.-370    	; 0x126 <GetDistance>
     298:	bc 01       	movw	r22, r24
     29a:	88 e0       	ldi	r24, 0x08	; 8
     29c:	90 e0       	ldi	r25, 0x00	; 0
     29e:	b7 df       	rcall	.-146    	; 0x20e <BlinkANumber>
     2a0:	84 ec       	ldi	r24, 0xC4	; 196
     2a2:	99 e0       	ldi	r25, 0x09	; 9
     2a4:	1b df       	rcall	.-458    	; 0xdc <delayms>
     2a6:	f7 cf       	rjmp	.-18     	; 0x296 <DebugMode>

000002a8 <MrEhasStoppedNow>:
     2a8:	cf 93       	push	r28
     2aa:	df 93       	push	r29
     2ac:	c0 e0       	ldi	r28, 0x00	; 0
     2ae:	d0 e0       	ldi	r29, 0x00	; 0
     2b0:	3a df       	rcall	.-396    	; 0x126 <GetDistance>
     2b2:	ac 01       	movw	r20, r24
     2b4:	61 ee       	ldi	r22, 0xE1	; 225
     2b6:	70 e0       	ldi	r23, 0x00	; 0
     2b8:	88 ec       	ldi	r24, 0xC8	; 200
     2ba:	90 e0       	ldi	r25, 0x00	; 0
     2bc:	02 df       	rcall	.-508    	; 0xc2 <IsCloseEnough>
     2be:	89 2b       	or	r24, r25
     2c0:	41 f4       	brne	.+16     	; 0x2d2 <MrEhasStoppedNow+0x2a>
     2c2:	c3 98       	cbi	0x18, 3	; 24
     2c4:	c5 98       	cbi	0x18, 5	; 24
     2c6:	c4 98       	cbi	0x18, 4	; 24
     2c8:	c3 9a       	sbi	0x18, 3	; 24
     2ca:	88 ec       	ldi	r24, 0xC8	; 200
     2cc:	90 e0       	ldi	r25, 0x00	; 0
     2ce:	06 df       	rcall	.-500    	; 0xdc <delayms>
     2d0:	07 c0       	rjmp	.+14     	; 0x2e0 <MrEhasStoppedNow+0x38>
     2d2:	c3 98       	cbi	0x18, 3	; 24
     2d4:	c5 98       	cbi	0x18, 5	; 24
     2d6:	c4 98       	cbi	0x18, 4	; 24
     2d8:	c4 9a       	sbi	0x18, 4	; 24
     2da:	88 ec       	ldi	r24, 0xC8	; 200
     2dc:	90 e0       	ldi	r25, 0x00	; 0
     2de:	fe de       	rcall	.-516    	; 0xdc <delayms>
     2e0:	21 96       	adiw	r28, 0x01	; 1
     2e2:	81 e0       	ldi	r24, 0x01	; 1
     2e4:	c5 3f       	cpi	r28, 0xF5	; 245
     2e6:	d8 07       	cpc	r29, r24
     2e8:	19 f7       	brne	.-58     	; 0x2b0 <MrEhasStoppedNow+0x8>
     2ea:	80 91 62 00 	lds	r24, 0x0062
     2ee:	90 91 63 00 	lds	r25, 0x0063
     2f2:	c1 df       	rcall	.-126    	; 0x276 <IFeelDifferent>
     2f4:	89 2b       	or	r24, r25
     2f6:	29 f0       	breq	.+10     	; 0x302 <MrEhasStoppedNow+0x5a>
     2f8:	10 92 83 01 	sts	0x0183, r1
     2fc:	10 92 82 01 	sts	0x0182, r1
     300:	13 c0       	rjmp	.+38     	; 0x328 <MrEhasStoppedNow+0x80>
     302:	80 91 82 01 	lds	r24, 0x0182
     306:	90 91 83 01 	lds	r25, 0x0183
     30a:	01 96       	adiw	r24, 0x01	; 1
     30c:	90 93 83 01 	sts	0x0183, r25
     310:	80 93 82 01 	sts	0x0182, r24
     314:	03 97       	sbiw	r24, 0x03	; 3
     316:	44 f0       	brlt	.+16     	; 0x328 <MrEhasStoppedNow+0x80>
     318:	10 92 83 01 	sts	0x0183, r1
     31c:	10 92 82 01 	sts	0x0182, r1
     320:	2f d2       	rcall	.+1118   	; 0x780 <TurnLeft>
     322:	88 ee       	ldi	r24, 0xE8	; 232
     324:	93 e0       	ldi	r25, 0x03	; 3
     326:	da de       	rcall	.-588    	; 0xdc <delayms>
     328:	df 91       	pop	r29
     32a:	cf 91       	pop	r28
     32c:	08 95       	ret

0000032e <NoProx>:
     32e:	0f 93       	push	r16
     330:	1f 93       	push	r17
     332:	cf 93       	push	r28
     334:	df 93       	push	r29
     336:	8c d2       	rcall	.+1304   	; 0x850 <RightProxOn>
     338:	89 2b       	or	r24, r25
     33a:	91 f0       	breq	.+36     	; 0x360 <NoProx+0x32>
     33c:	83 d2       	rcall	.+1286   	; 0x844 <LeftProxOn>
     33e:	89 2b       	or	r24, r25
     340:	49 f0       	breq	.+18     	; 0x354 <NoProx+0x26>
     342:	24 d2       	rcall	.+1096   	; 0x78c <BackUp>
     344:	84 e6       	ldi	r24, 0x64	; 100
     346:	90 e0       	ldi	r25, 0x00	; 0
     348:	c9 de       	rcall	.-622    	; 0xdc <delayms>
     34a:	c3 e0       	ldi	r28, 0x03	; 3
     34c:	d0 e0       	ldi	r29, 0x00	; 0
     34e:	00 e0       	ldi	r16, 0x00	; 0
     350:	10 e0       	ldi	r17, 0x00	; 0
     352:	13 c0       	rjmp	.+38     	; 0x37a <NoProx+0x4c>
     354:	12 d2       	rcall	.+1060   	; 0x77a <TurnRight>
     356:	c2 e0       	ldi	r28, 0x02	; 2
     358:	d0 e0       	ldi	r29, 0x00	; 0
     35a:	00 e0       	ldi	r16, 0x00	; 0
     35c:	10 e0       	ldi	r17, 0x00	; 0
     35e:	0d c0       	rjmp	.+26     	; 0x37a <NoProx+0x4c>
     360:	71 d2       	rcall	.+1250   	; 0x844 <LeftProxOn>
     362:	89 2b       	or	r24, r25
     364:	29 f4       	brne	.+10     	; 0x370 <NoProx+0x42>
     366:	c0 e0       	ldi	r28, 0x00	; 0
     368:	d0 e0       	ldi	r29, 0x00	; 0
     36a:	01 e0       	ldi	r16, 0x01	; 1
     36c:	10 e0       	ldi	r17, 0x00	; 0
     36e:	05 c0       	rjmp	.+10     	; 0x37a <NoProx+0x4c>
     370:	07 d2       	rcall	.+1038   	; 0x780 <TurnLeft>
     372:	c1 e0       	ldi	r28, 0x01	; 1
     374:	d0 e0       	ldi	r29, 0x00	; 0
     376:	00 e0       	ldi	r16, 0x00	; 0
     378:	10 e0       	ldi	r17, 0x00	; 0
     37a:	80 91 80 01 	lds	r24, 0x0180
     37e:	90 91 81 01 	lds	r25, 0x0181
     382:	8c 17       	cp	r24, r28
     384:	9d 07       	cpc	r25, r29
     386:	09 f0       	breq	.+2      	; 0x38a <NoProx+0x5c>
     388:	04 d2       	rcall	.+1032   	; 0x792 <FullStop>
     38a:	d0 93 81 01 	sts	0x0181, r29
     38e:	c0 93 80 01 	sts	0x0180, r28
     392:	c8 01       	movw	r24, r16
     394:	df 91       	pop	r29
     396:	cf 91       	pop	r28
     398:	1f 91       	pop	r17
     39a:	0f 91       	pop	r16
     39c:	08 95       	ret

0000039e <daRandomNo>:
     39e:	27 d6       	rcall	.+3150   	; 0xfee <rand>
     3a0:	aa 27       	eor	r26, r26
     3a2:	97 fd       	sbrc	r25, 7
     3a4:	a0 95       	com	r26
     3a6:	ba 2f       	mov	r27, r26
     3a8:	bc 01       	movw	r22, r24
     3aa:	cd 01       	movw	r24, r26
     3ac:	89 d3       	rcall	.+1810   	; 0xac0 <__floatsisf>
     3ae:	25 e5       	ldi	r18, 0x55	; 85
     3b0:	39 ea       	ldi	r19, 0xA9	; 169
     3b2:	4a ea       	ldi	r20, 0xAA	; 170
     3b4:	55 e4       	ldi	r21, 0x45	; 69
     3b6:	d4 d2       	rcall	.+1448   	; 0x960 <__divsf3>
     3b8:	dd d3       	rcall	.+1978   	; 0xb74 <__fixsfsi>
     3ba:	cb 01       	movw	r24, r22
     3bc:	62 30       	cpi	r22, 0x02	; 2
     3be:	71 05       	cpc	r23, r1
     3c0:	1c f4       	brge	.+6      	; 0x3c8 <daRandomNo+0x2a>
     3c2:	81 e0       	ldi	r24, 0x01	; 1
     3c4:	90 e0       	ldi	r25, 0x00	; 0
     3c6:	08 95       	ret
     3c8:	62 30       	cpi	r22, 0x02	; 2
     3ca:	71 05       	cpc	r23, r1
     3cc:	89 f0       	breq	.+34     	; 0x3f0 <daRandomNo+0x52>
     3ce:	63 30       	cpi	r22, 0x03	; 3
     3d0:	71 05       	cpc	r23, r1
     3d2:	71 f0       	breq	.+28     	; 0x3f0 <daRandomNo+0x52>
     3d4:	64 30       	cpi	r22, 0x04	; 4
     3d6:	71 05       	cpc	r23, r1
     3d8:	19 f4       	brne	.+6      	; 0x3e0 <daRandomNo+0x42>
     3da:	80 e0       	ldi	r24, 0x00	; 0
     3dc:	90 e0       	ldi	r25, 0x00	; 0
     3de:	08 95       	ret
     3e0:	20 e0       	ldi	r18, 0x00	; 0
     3e2:	30 e0       	ldi	r19, 0x00	; 0
     3e4:	65 30       	cpi	r22, 0x05	; 5
     3e6:	71 05       	cpc	r23, r1
     3e8:	11 f4       	brne	.+4      	; 0x3ee <daRandomNo+0x50>
     3ea:	21 e0       	ldi	r18, 0x01	; 1
     3ec:	30 e0       	ldi	r19, 0x00	; 0
     3ee:	c9 01       	movw	r24, r18
     3f0:	08 95       	ret

000003f2 <MakeAMove>:
     3f2:	81 30       	cpi	r24, 0x01	; 1
     3f4:	91 05       	cpc	r25, r1
     3f6:	81 f0       	breq	.+32     	; 0x418 <MakeAMove+0x26>
     3f8:	82 30       	cpi	r24, 0x02	; 2
     3fa:	91 05       	cpc	r25, r1
     3fc:	1c f4       	brge	.+6      	; 0x404 <MakeAMove+0x12>
     3fe:	89 2b       	or	r24, r25
     400:	41 f0       	breq	.+16     	; 0x412 <MakeAMove+0x20>
     402:	08 95       	ret
     404:	82 30       	cpi	r24, 0x02	; 2
     406:	91 05       	cpc	r25, r1
     408:	69 f1       	breq	.+90     	; 0x464 <__stack+0x5>
     40a:	03 97       	sbiw	r24, 0x03	; 3
     40c:	09 f0       	breq	.+2      	; 0x410 <MakeAMove+0x1e>
     40e:	47 c0       	rjmp	.+142    	; 0x49e <__stack+0x3f>
     410:	38 c0       	rjmp	.+112    	; 0x482 <__stack+0x23>
     412:	c5 df       	rcall	.-118    	; 0x39e <daRandomNo>
     414:	d6 d1       	rcall	.+940    	; 0x7c2 <StepForward>
     416:	08 95       	ret
     418:	b0 d1       	rcall	.+864    	; 0x77a <TurnRight>
     41a:	c1 df       	rcall	.-126    	; 0x39e <daRandomNo>
     41c:	88 0f       	add	r24, r24
     41e:	99 1f       	adc	r25, r25
     420:	88 0f       	add	r24, r24
     422:	99 1f       	adc	r25, r25
     424:	88 0f       	add	r24, r24
     426:	99 1f       	adc	r25, r25
     428:	9c 01       	movw	r18, r24
     42a:	22 0f       	add	r18, r18
     42c:	33 1f       	adc	r19, r19
     42e:	22 0f       	add	r18, r18
     430:	33 1f       	adc	r19, r19
     432:	82 0f       	add	r24, r18
     434:	93 1f       	adc	r25, r19
     436:	52 de       	rcall	.-860    	; 0xdc <delayms>
     438:	ac d1       	rcall	.+856    	; 0x792 <FullStop>
     43a:	79 df       	rcall	.-270    	; 0x32e <NoProx>
     43c:	89 2b       	or	r24, r25
     43e:	79 f1       	breq	.+94     	; 0x49e <__stack+0x3f>
     440:	9f d1       	rcall	.+830    	; 0x780 <TurnLeft>
     442:	ad df       	rcall	.-166    	; 0x39e <daRandomNo>
     444:	88 0f       	add	r24, r24
     446:	99 1f       	adc	r25, r25
     448:	88 0f       	add	r24, r24
     44a:	99 1f       	adc	r25, r25
     44c:	88 0f       	add	r24, r24
     44e:	99 1f       	adc	r25, r25
     450:	9c 01       	movw	r18, r24
     452:	22 0f       	add	r18, r18
     454:	33 1f       	adc	r19, r19
     456:	22 0f       	add	r18, r18
     458:	33 1f       	adc	r19, r19
     45a:	82 0f       	add	r24, r18
     45c:	93 1f       	adc	r25, r19
     45e:	3e de       	rcall	.-900    	; 0xdc <delayms>
     460:	98 d1       	rcall	.+816    	; 0x792 <FullStop>
     462:	08 95       	ret
     464:	8a d1       	rcall	.+788    	; 0x77a <TurnRight>
     466:	9b df       	rcall	.-202    	; 0x39e <daRandomNo>
     468:	28 ec       	ldi	r18, 0xC8	; 200
     46a:	30 e0       	ldi	r19, 0x00	; 0
     46c:	ac 01       	movw	r20, r24
     46e:	42 9f       	mul	r20, r18
     470:	c0 01       	movw	r24, r0
     472:	43 9f       	mul	r20, r19
     474:	90 0d       	add	r25, r0
     476:	52 9f       	mul	r21, r18
     478:	90 0d       	add	r25, r0
     47a:	11 24       	eor	r1, r1
     47c:	2f de       	rcall	.-930    	; 0xdc <delayms>
     47e:	89 d1       	rcall	.+786    	; 0x792 <FullStop>
     480:	08 95       	ret
     482:	7e d1       	rcall	.+764    	; 0x780 <TurnLeft>
     484:	8c df       	rcall	.-232    	; 0x39e <daRandomNo>
     486:	28 ec       	ldi	r18, 0xC8	; 200
     488:	30 e0       	ldi	r19, 0x00	; 0
     48a:	ac 01       	movw	r20, r24
     48c:	42 9f       	mul	r20, r18
     48e:	c0 01       	movw	r24, r0
     490:	43 9f       	mul	r20, r19
     492:	90 0d       	add	r25, r0
     494:	52 9f       	mul	r21, r18
     496:	90 0d       	add	r25, r0
     498:	11 24       	eor	r1, r1
     49a:	20 de       	rcall	.-960    	; 0xdc <delayms>
     49c:	7a d1       	rcall	.+756    	; 0x792 <FullStop>
     49e:	08 95       	ret

000004a0 <MrE_Mode>:
     4a0:	ef 92       	push	r14
     4a2:	ff 92       	push	r15
     4a4:	0f 93       	push	r16
     4a6:	1f 93       	push	r17
     4a8:	cf 93       	push	r28
     4aa:	df 93       	push	r29
     4ac:	78 df       	rcall	.-272    	; 0x39e <daRandomNo>
     4ae:	ec 01       	movw	r28, r24
     4b0:	00 e0       	ldi	r16, 0x00	; 0
     4b2:	10 e0       	ldi	r17, 0x00	; 0
     4b4:	0f 2e       	mov	r0, r31
     4b6:	f0 ed       	ldi	r31, 0xD0	; 208
     4b8:	ef 2e       	mov	r14, r31
     4ba:	f7 e0       	ldi	r31, 0x07	; 7
     4bc:	ff 2e       	mov	r15, r31
     4be:	f0 2d       	mov	r31, r0
     4c0:	ce 01       	movw	r24, r28
     4c2:	dc dd       	rcall	.-1096   	; 0x7c <ShowLEDvalue>
     4c4:	34 df       	rcall	.-408    	; 0x32e <NoProx>
     4c6:	89 2b       	or	r24, r25
     4c8:	d9 f3       	breq	.-10     	; 0x4c0 <MrE_Mode+0x20>
     4ca:	0f 5f       	subi	r16, 0xFF	; 255
     4cc:	1f 4f       	sbci	r17, 0xFF	; 255
     4ce:	81 e0       	ldi	r24, 0x01	; 1
     4d0:	90 e0       	ldi	r25, 0x00	; 0
     4d2:	04 de       	rcall	.-1016   	; 0xdc <delayms>
     4d4:	0e 15       	cp	r16, r14
     4d6:	1f 05       	cpc	r17, r15
     4d8:	9c f3       	brlt	.-26     	; 0x4c0 <MrE_Mode+0x20>
     4da:	61 df       	rcall	.-318    	; 0x39e <daRandomNo>
     4dc:	ec 01       	movw	r28, r24
     4de:	89 df       	rcall	.-238    	; 0x3f2 <MakeAMove>
     4e0:	88 ee       	ldi	r24, 0xE8	; 232
     4e2:	93 e0       	ldi	r25, 0x03	; 3
     4e4:	9c 01       	movw	r18, r24
     4e6:	c2 9f       	mul	r28, r18
     4e8:	c0 01       	movw	r24, r0
     4ea:	c3 9f       	mul	r28, r19
     4ec:	90 0d       	add	r25, r0
     4ee:	d2 9f       	mul	r29, r18
     4f0:	90 0d       	add	r25, r0
     4f2:	11 24       	eor	r1, r1
     4f4:	0f 2e       	mov	r0, r31
     4f6:	f4 e6       	ldi	r31, 0x64	; 100
     4f8:	ef 2e       	mov	r14, r31
     4fa:	ff 24       	eor	r15, r15
     4fc:	f0 2d       	mov	r31, r0
     4fe:	e8 0e       	add	r14, r24
     500:	f9 1e       	adc	r15, r25
     502:	00 e0       	ldi	r16, 0x00	; 0
     504:	10 e0       	ldi	r17, 0x00	; 0
     506:	dc cf       	rjmp	.-72     	; 0x4c0 <MrE_Mode+0x20>

00000508 <DemoMode1>:
     508:	4a df       	rcall	.-364    	; 0x39e <daRandomNo>
     50a:	b8 dd       	rcall	.-1168   	; 0x7c <ShowLEDvalue>
     50c:	81 e0       	ldi	r24, 0x01	; 1
     50e:	90 e0       	ldi	r25, 0x00	; 0
     510:	86 d1       	rcall	.+780    	; 0x81e <ForwardBreak>
     512:	88 ee       	ldi	r24, 0xE8	; 232
     514:	93 e0       	ldi	r25, 0x03	; 3
     516:	e2 dd       	rcall	.-1084   	; 0xdc <delayms>
     518:	81 e0       	ldi	r24, 0x01	; 1
     51a:	90 e0       	ldi	r25, 0x00	; 0
     51c:	6d d1       	rcall	.+730    	; 0x7f8 <BackwardBreak>
     51e:	88 ee       	ldi	r24, 0xE8	; 232
     520:	93 e0       	ldi	r25, 0x03	; 3
     522:	dc dd       	rcall	.-1096   	; 0xdc <delayms>
     524:	82 e0       	ldi	r24, 0x02	; 2
     526:	90 e0       	ldi	r25, 0x00	; 0
     528:	7a d1       	rcall	.+756    	; 0x81e <ForwardBreak>
     52a:	88 ee       	ldi	r24, 0xE8	; 232
     52c:	93 e0       	ldi	r25, 0x03	; 3
     52e:	d6 dd       	rcall	.-1108   	; 0xdc <delayms>
     530:	82 e0       	ldi	r24, 0x02	; 2
     532:	90 e0       	ldi	r25, 0x00	; 0
     534:	61 d1       	rcall	.+706    	; 0x7f8 <BackwardBreak>
     536:	88 ee       	ldi	r24, 0xE8	; 232
     538:	93 e0       	ldi	r25, 0x03	; 3
     53a:	d0 dd       	rcall	.-1120   	; 0xdc <delayms>
     53c:	84 e0       	ldi	r24, 0x04	; 4
     53e:	90 e0       	ldi	r25, 0x00	; 0
     540:	6e d1       	rcall	.+732    	; 0x81e <ForwardBreak>
     542:	88 ee       	ldi	r24, 0xE8	; 232
     544:	93 e0       	ldi	r25, 0x03	; 3
     546:	ca dd       	rcall	.-1132   	; 0xdc <delayms>
     548:	84 e0       	ldi	r24, 0x04	; 4
     54a:	90 e0       	ldi	r25, 0x00	; 0
     54c:	55 d1       	rcall	.+682    	; 0x7f8 <BackwardBreak>
     54e:	88 ee       	ldi	r24, 0xE8	; 232
     550:	93 e0       	ldi	r25, 0x03	; 3
     552:	c4 dd       	rcall	.-1144   	; 0xdc <delayms>
     554:	80 e1       	ldi	r24, 0x10	; 16
     556:	90 e0       	ldi	r25, 0x00	; 0
     558:	62 d1       	rcall	.+708    	; 0x81e <ForwardBreak>
     55a:	88 ee       	ldi	r24, 0xE8	; 232
     55c:	93 e0       	ldi	r25, 0x03	; 3
     55e:	be dd       	rcall	.-1156   	; 0xdc <delayms>
     560:	80 e1       	ldi	r24, 0x10	; 16
     562:	90 e0       	ldi	r25, 0x00	; 0
     564:	49 d1       	rcall	.+658    	; 0x7f8 <BackwardBreak>
     566:	88 ee       	ldi	r24, 0xE8	; 232
     568:	93 e0       	ldi	r25, 0x03	; 3
     56a:	b8 dd       	rcall	.-1168   	; 0xdc <delayms>
     56c:	cd cf       	rjmp	.-102    	; 0x508 <DemoMode1>

0000056e <DemoMode2>:
     56e:	cf 93       	push	r28
     570:	df 93       	push	r29
     572:	dd de       	rcall	.-582    	; 0x32e <NoProx>
     574:	89 2b       	or	r24, r25
     576:	e9 f3       	breq	.-6      	; 0x572 <DemoMode2+0x4>
     578:	d6 dd       	rcall	.-1108   	; 0x126 <GetDistance>
     57a:	ac 01       	movw	r20, r24
     57c:	61 ee       	ldi	r22, 0xE1	; 225
     57e:	70 e0       	ldi	r23, 0x00	; 0
     580:	8c e8       	ldi	r24, 0x8C	; 140
     582:	90 e0       	ldi	r25, 0x00	; 0
     584:	9e dd       	rcall	.-1220   	; 0xc2 <IsCloseEnough>
     586:	ac 01       	movw	r20, r24
     588:	00 97       	sbiw	r24, 0x00	; 0
     58a:	21 f0       	breq	.+8      	; 0x594 <DemoMode2+0x26>
     58c:	01 97       	sbiw	r24, 0x01	; 1
     58e:	09 f0       	breq	.+2      	; 0x592 <DemoMode2+0x24>
     590:	40 c0       	rjmp	.+128    	; 0x612 <DemoMode2+0xa4>
     592:	33 c0       	rjmp	.+102    	; 0x5fa <DemoMode2+0x8c>
     594:	8e e1       	ldi	r24, 0x1E	; 30
     596:	90 e0       	ldi	r25, 0x00	; 0
     598:	90 93 7f 01 	sts	0x017F, r25
     59c:	80 93 7e 01 	sts	0x017E, r24
     5a0:	c4 9a       	sbi	0x18, 4	; 24
     5a2:	fd de       	rcall	.-518    	; 0x39e <daRandomNo>
     5a4:	02 97       	sbiw	r24, 0x02	; 2
     5a6:	14 f0       	brlt	.+4      	; 0x5ac <DemoMode2+0x3e>
     5a8:	eb d0       	rcall	.+470    	; 0x780 <TurnLeft>
     5aa:	01 c0       	rjmp	.+2      	; 0x5ae <DemoMode2+0x40>
     5ac:	e6 d0       	rcall	.+460    	; 0x77a <TurnRight>
     5ae:	f7 de       	rcall	.-530    	; 0x39e <daRandomNo>
     5b0:	01 96       	adiw	r24, 0x01	; 1
     5b2:	22 e3       	ldi	r18, 0x32	; 50
     5b4:	30 e0       	ldi	r19, 0x00	; 0
     5b6:	ac 01       	movw	r20, r24
     5b8:	42 9f       	mul	r20, r18
     5ba:	c0 01       	movw	r24, r0
     5bc:	43 9f       	mul	r20, r19
     5be:	90 0d       	add	r25, r0
     5c0:	52 9f       	mul	r21, r18
     5c2:	90 0d       	add	r25, r0
     5c4:	11 24       	eor	r1, r1
     5c6:	99 23       	and	r25, r25
     5c8:	0c f4       	brge	.+2      	; 0x5cc <DemoMode2+0x5e>
     5ca:	44 c0       	rjmp	.+136    	; 0x654 <DemoMode2+0xe6>
     5cc:	ec 01       	movw	r28, r24
     5ce:	af de       	rcall	.-674    	; 0x32e <NoProx>
     5d0:	89 2b       	or	r24, r25
     5d2:	89 f0       	breq	.+34     	; 0x5f6 <DemoMode2+0x88>
     5d4:	a8 dd       	rcall	.-1200   	; 0x126 <GetDistance>
     5d6:	ac 01       	movw	r20, r24
     5d8:	61 ee       	ldi	r22, 0xE1	; 225
     5da:	70 e0       	ldi	r23, 0x00	; 0
     5dc:	8c e8       	ldi	r24, 0x8C	; 140
     5de:	90 e0       	ldi	r25, 0x00	; 0
     5e0:	70 dd       	rcall	.-1312   	; 0xc2 <IsCloseEnough>
     5e2:	89 2b       	or	r24, r25
     5e4:	11 f0       	breq	.+4      	; 0x5ea <DemoMode2+0x7c>
     5e6:	d5 d0       	rcall	.+426    	; 0x792 <FullStop>
     5e8:	35 c0       	rjmp	.+106    	; 0x654 <DemoMode2+0xe6>
     5ea:	8a e0       	ldi	r24, 0x0A	; 10
     5ec:	90 e0       	ldi	r25, 0x00	; 0
     5ee:	76 dd       	rcall	.-1300   	; 0xdc <delayms>
     5f0:	21 97       	sbiw	r28, 0x01	; 1
     5f2:	82 f1       	brmi	.+96     	; 0x654 <DemoMode2+0xe6>
     5f4:	ec cf       	rjmp	.-40     	; 0x5ce <DemoMode2+0x60>
     5f6:	cd d0       	rcall	.+410    	; 0x792 <FullStop>
     5f8:	2d c0       	rjmp	.+90     	; 0x654 <DemoMode2+0xe6>
     5fa:	8a e0       	ldi	r24, 0x0A	; 10
     5fc:	90 e0       	ldi	r25, 0x00	; 0
     5fe:	90 93 7f 01 	sts	0x017F, r25
     602:	80 93 7e 01 	sts	0x017E, r24
     606:	c3 9a       	sbi	0x18, 3	; 24
     608:	c1 d0       	rcall	.+386    	; 0x78c <BackUp>
     60a:	82 e3       	ldi	r24, 0x32	; 50
     60c:	90 e0       	ldi	r25, 0x00	; 0
     60e:	66 dd       	rcall	.-1332   	; 0xdc <delayms>
     610:	21 c0       	rjmp	.+66     	; 0x654 <DemoMode2+0xe6>
     612:	84 e1       	ldi	r24, 0x14	; 20
     614:	90 e0       	ldi	r25, 0x00	; 0
     616:	90 93 7f 01 	sts	0x017F, r25
     61a:	80 93 7e 01 	sts	0x017E, r24
     61e:	c5 9a       	sbi	0x18, 5	; 24
     620:	68 ec       	ldi	r22, 0xC8	; 200
     622:	70 e0       	ldi	r23, 0x00	; 0
     624:	84 eb       	ldi	r24, 0xB4	; 180
     626:	90 e0       	ldi	r25, 0x00	; 0
     628:	4c dd       	rcall	.-1384   	; 0xc2 <IsCloseEnough>
     62a:	00 97       	sbiw	r24, 0x00	; 0
     62c:	19 f0       	breq	.+6      	; 0x634 <DemoMode2+0xc6>
     62e:	01 97       	sbiw	r24, 0x01	; 1
     630:	81 f4       	brne	.+32     	; 0x652 <DemoMode2+0xe4>
     632:	05 c0       	rjmp	.+10     	; 0x63e <DemoMode2+0xd0>
     634:	c4 9a       	sbi	0x18, 4	; 24
     636:	81 e0       	ldi	r24, 0x01	; 1
     638:	90 e0       	ldi	r25, 0x00	; 0
     63a:	c3 d0       	rcall	.+390    	; 0x7c2 <StepForward>
     63c:	0b c0       	rjmp	.+22     	; 0x654 <DemoMode2+0xe6>
     63e:	c3 9a       	sbi	0x18, 3	; 24
     640:	a8 d0       	rcall	.+336    	; 0x792 <FullStop>
     642:	8d e1       	ldi	r24, 0x1D	; 29
     644:	90 e0       	ldi	r25, 0x00	; 0
     646:	90 93 7f 01 	sts	0x017F, r25
     64a:	80 93 7e 01 	sts	0x017E, r24
     64e:	2c de       	rcall	.-936    	; 0x2a8 <MrEhasStoppedNow>
     650:	01 c0       	rjmp	.+2      	; 0x654 <DemoMode2+0xe6>
     652:	99 d0       	rcall	.+306    	; 0x786 <GoForward>
     654:	80 91 62 00 	lds	r24, 0x0062
     658:	90 91 63 00 	lds	r25, 0x0063
     65c:	0c de       	rcall	.-1000   	; 0x276 <IFeelDifferent>
     65e:	89 2b       	or	r24, r25
     660:	09 f0       	breq	.+2      	; 0x664 <DemoMode2+0xf6>
     662:	97 d0       	rcall	.+302    	; 0x792 <FullStop>
     664:	80 91 7e 01 	lds	r24, 0x017E
     668:	90 91 7f 01 	lds	r25, 0x017F
     66c:	90 93 63 00 	sts	0x0063, r25
     670:	80 93 62 00 	sts	0x0062, r24
     674:	84 e1       	ldi	r24, 0x14	; 20
     676:	90 e0       	ldi	r25, 0x00	; 0
     678:	31 dd       	rcall	.-1438   	; 0xdc <delayms>
     67a:	c3 98       	cbi	0x18, 3	; 24
     67c:	c5 98       	cbi	0x18, 5	; 24
     67e:	c4 98       	cbi	0x18, 4	; 24
     680:	78 cf       	rjmp	.-272    	; 0x572 <DemoMode2+0x4>

00000682 <InitEverything>:
     682:	8f ef       	ldi	r24, 0xFF	; 255
     684:	87 bb       	out	0x17, r24	; 23
     686:	84 bb       	out	0x14, r24	; 20
     688:	11 ba       	out	0x11, r1	; 17
     68a:	89 9a       	sbi	0x11, 1	; 17
     68c:	8a 9a       	sbi	0x11, 2	; 17
     68e:	85 b3       	in	r24, 0x15	; 21
     690:	85 bb       	out	0x15, r24	; 21
     692:	85 b3       	in	r24, 0x15	; 21
     694:	85 bb       	out	0x15, r24	; 21
     696:	ee dc       	rcall	.-1572   	; 0x74 <InitLEDs>
     698:	0a dd       	rcall	.-1516   	; 0xae <InitJumpers>
     69a:	0e dd       	rcall	.-1508   	; 0xb8 <InitializeDistance>
     69c:	8a e2       	ldi	r24, 0x2A	; 42
     69e:	90 e0       	ldi	r25, 0x00	; 0
     6a0:	aa d4       	rcall	.+2388   	; 0xff6 <srand>
     6a2:	08 95       	ret

000006a4 <main>:
     6a4:	cf 93       	push	r28
     6a6:	df 93       	push	r29
     6a8:	ec df       	rcall	.-40     	; 0x682 <InitEverything>
     6aa:	49 d0       	rcall	.+146    	; 0x73e <DisableLeftMotor>
     6ac:	4c d0       	rcall	.+152    	; 0x746 <DisableRightMotor>
     6ae:	45 d0       	rcall	.+138    	; 0x73a <EnableLeftMotor>
     6b0:	48 d0       	rcall	.+144    	; 0x742 <EnableRightMotor>
     6b2:	c3 e0       	ldi	r28, 0x03	; 3
     6b4:	d0 e0       	ldi	r29, 0x00	; 0
     6b6:	ce 01       	movw	r24, r28
     6b8:	e1 dc       	rcall	.-1598   	; 0x7c <ShowLEDvalue>
     6ba:	8e ee       	ldi	r24, 0xEE	; 238
     6bc:	92 e0       	ldi	r25, 0x02	; 2
     6be:	0e dd       	rcall	.-1508   	; 0xdc <delayms>
     6c0:	21 97       	sbiw	r28, 0x01	; 1
     6c2:	8f ef       	ldi	r24, 0xFF	; 255
     6c4:	cf 3f       	cpi	r28, 0xFF	; 255
     6c6:	d8 07       	cpc	r29, r24
     6c8:	b1 f7       	brne	.-20     	; 0x6b6 <main+0x12>
     6ca:	c3 98       	cbi	0x18, 3	; 24
     6cc:	c5 98       	cbi	0x18, 5	; 24
     6ce:	c4 98       	cbi	0x18, 4	; 24
     6d0:	88 ec       	ldi	r24, 0xC8	; 200
     6d2:	90 e0       	ldi	r25, 0x00	; 0
     6d4:	03 dd       	rcall	.-1530   	; 0xdc <delayms>
     6d6:	c3 98       	cbi	0x18, 3	; 24
     6d8:	c5 98       	cbi	0x18, 5	; 24
     6da:	c4 98       	cbi	0x18, 4	; 24
     6dc:	88 ec       	ldi	r24, 0xC8	; 200
     6de:	90 e0       	ldi	r25, 0x00	; 0
     6e0:	fd dc       	rcall	.-1542   	; 0xdc <delayms>
     6e2:	c3 e0       	ldi	r28, 0x03	; 3
     6e4:	d0 e0       	ldi	r29, 0x00	; 0
     6e6:	d4 dd       	rcall	.-1112   	; 0x290 <IndicateJumperViaLED>
     6e8:	84 e6       	ldi	r24, 0x64	; 100
     6ea:	90 e0       	ldi	r25, 0x00	; 0
     6ec:	f7 dc       	rcall	.-1554   	; 0xdc <delayms>
     6ee:	c3 98       	cbi	0x18, 3	; 24
     6f0:	c5 98       	cbi	0x18, 5	; 24
     6f2:	c4 98       	cbi	0x18, 4	; 24
     6f4:	82 e3       	ldi	r24, 0x32	; 50
     6f6:	90 e0       	ldi	r25, 0x00	; 0
     6f8:	f1 dc       	rcall	.-1566   	; 0xdc <delayms>
     6fa:	21 97       	sbiw	r28, 0x01	; 1
     6fc:	8f ef       	ldi	r24, 0xFF	; 255
     6fe:	cf 3f       	cpi	r28, 0xFF	; 255
     700:	d8 07       	cpc	r29, r24
     702:	89 f7       	brne	.-30     	; 0x6e6 <main+0x42>
     704:	63 dd       	rcall	.-1338   	; 0x1cc <GetJumperValue>
     706:	82 30       	cpi	r24, 0x02	; 2
     708:	91 05       	cpc	r25, r1
     70a:	79 f0       	breq	.+30     	; 0x72a <main+0x86>
     70c:	83 30       	cpi	r24, 0x03	; 3
     70e:	91 05       	cpc	r25, r1
     710:	1c f4       	brge	.+6      	; 0x718 <main+0x74>
     712:	01 97       	sbiw	r24, 0x01	; 1
     714:	69 f4       	brne	.+26     	; 0x730 <main+0x8c>
     716:	07 c0       	rjmp	.+14     	; 0x726 <main+0x82>
     718:	83 30       	cpi	r24, 0x03	; 3
     71a:	91 05       	cpc	r25, r1
     71c:	41 f0       	breq	.+16     	; 0x72e <main+0x8a>
     71e:	04 97       	sbiw	r24, 0x04	; 4
     720:	39 f4       	brne	.+14     	; 0x730 <main+0x8c>
     722:	b9 dd       	rcall	.-1166   	; 0x296 <DebugMode>
     724:	05 c0       	rjmp	.+10     	; 0x730 <main+0x8c>
     726:	f0 de       	rcall	.-544    	; 0x508 <DemoMode1>
     728:	03 c0       	rjmp	.+6      	; 0x730 <main+0x8c>
     72a:	21 df       	rcall	.-446    	; 0x56e <DemoMode2>
     72c:	01 c0       	rjmp	.+2      	; 0x730 <main+0x8c>
     72e:	b8 de       	rcall	.-656    	; 0x4a0 <MrE_Mode>
     730:	80 e0       	ldi	r24, 0x00	; 0
     732:	90 e0       	ldi	r25, 0x00	; 0
     734:	df 91       	pop	r29
     736:	cf 91       	pop	r28
     738:	08 95       	ret

0000073a <EnableLeftMotor>:
     73a:	a9 9a       	sbi	0x15, 1	; 21
     73c:	08 95       	ret

0000073e <DisableLeftMotor>:
     73e:	a9 98       	cbi	0x15, 1	; 21
     740:	08 95       	ret

00000742 <EnableRightMotor>:
     742:	a8 9a       	sbi	0x15, 0	; 21
     744:	08 95       	ret

00000746 <DisableRightMotor>:
     746:	a8 98       	cbi	0x15, 0	; 21
     748:	08 95       	ret

0000074a <MyLeftWheelForward>:
     74a:	c6 98       	cbi	0x18, 6	; 24
     74c:	c7 9a       	sbi	0x18, 7	; 24
     74e:	08 95       	ret

00000750 <MyLeftWheelBackward>:
     750:	c7 98       	cbi	0x18, 7	; 24
     752:	c6 9a       	sbi	0x18, 6	; 24
     754:	08 95       	ret

00000756 <MyLeftWheelStop>:
     756:	c6 98       	cbi	0x18, 6	; 24
     758:	c7 98       	cbi	0x18, 7	; 24
     75a:	08 95       	ret

0000075c <MyLeftWheelBreak>:
     75c:	c7 9a       	sbi	0x18, 7	; 24
     75e:	c6 9a       	sbi	0x18, 6	; 24
     760:	08 95       	ret

00000762 <MyRightWheelForward>:
     762:	aa 98       	cbi	0x15, 2	; 21
     764:	ab 9a       	sbi	0x15, 3	; 21
     766:	08 95       	ret

00000768 <MyRightWheelBackward>:
     768:	ab 98       	cbi	0x15, 3	; 21
     76a:	aa 9a       	sbi	0x15, 2	; 21
     76c:	08 95       	ret

0000076e <MyRightWheelStop>:
     76e:	aa 98       	cbi	0x15, 2	; 21
     770:	ab 98       	cbi	0x15, 3	; 21
     772:	08 95       	ret

00000774 <MyRightWheelBreak>:
     774:	ab 9a       	sbi	0x15, 3	; 21
     776:	aa 9a       	sbi	0x15, 2	; 21
     778:	08 95       	ret

0000077a <TurnRight>:
     77a:	e7 df       	rcall	.-50     	; 0x74a <MyLeftWheelForward>
     77c:	f5 df       	rcall	.-22     	; 0x768 <MyRightWheelBackward>
     77e:	08 95       	ret

00000780 <TurnLeft>:
     780:	f0 df       	rcall	.-32     	; 0x762 <MyRightWheelForward>
     782:	e6 df       	rcall	.-52     	; 0x750 <MyLeftWheelBackward>
     784:	08 95       	ret

00000786 <GoForward>:
     786:	ed df       	rcall	.-38     	; 0x762 <MyRightWheelForward>
     788:	e0 df       	rcall	.-64     	; 0x74a <MyLeftWheelForward>
     78a:	08 95       	ret

0000078c <BackUp>:
     78c:	e1 df       	rcall	.-62     	; 0x750 <MyLeftWheelBackward>
     78e:	ec df       	rcall	.-40     	; 0x768 <MyRightWheelBackward>
     790:	08 95       	ret

00000792 <FullStop>:
     792:	e1 df       	rcall	.-62     	; 0x756 <MyLeftWheelStop>
     794:	ec df       	rcall	.-40     	; 0x76e <MyRightWheelStop>
     796:	08 95       	ret

00000798 <StepBackward>:
     798:	cf 93       	push	r28
     79a:	df 93       	push	r29
     79c:	ec 01       	movw	r28, r24
     79e:	89 2b       	or	r24, r25
     7a0:	61 f0       	breq	.+24     	; 0x7ba <StepBackward+0x22>
     7a2:	e2 df       	rcall	.-60     	; 0x768 <MyRightWheelBackward>
     7a4:	8e e6       	ldi	r24, 0x6E	; 110
     7a6:	90 e0       	ldi	r25, 0x00	; 0
     7a8:	99 dc       	rcall	.-1742   	; 0xdc <delayms>
     7aa:	e4 df       	rcall	.-56     	; 0x774 <MyRightWheelBreak>
     7ac:	d1 df       	rcall	.-94     	; 0x750 <MyLeftWheelBackward>
     7ae:	8e e6       	ldi	r24, 0x6E	; 110
     7b0:	90 e0       	ldi	r25, 0x00	; 0
     7b2:	94 dc       	rcall	.-1752   	; 0xdc <delayms>
     7b4:	d3 df       	rcall	.-90     	; 0x75c <MyLeftWheelBreak>
     7b6:	21 97       	sbiw	r28, 0x01	; 1
     7b8:	a1 f7       	brne	.-24     	; 0x7a2 <StepBackward+0xa>
     7ba:	eb df       	rcall	.-42     	; 0x792 <FullStop>
     7bc:	df 91       	pop	r29
     7be:	cf 91       	pop	r28
     7c0:	08 95       	ret

000007c2 <StepForward>:
     7c2:	cf 93       	push	r28
     7c4:	df 93       	push	r29
     7c6:	ec 01       	movw	r28, r24
     7c8:	89 2b       	or	r24, r25
     7ca:	91 f0       	breq	.+36     	; 0x7f0 <StepForward+0x2e>
     7cc:	ca df       	rcall	.-108    	; 0x762 <MyRightWheelForward>
     7ce:	8e e6       	ldi	r24, 0x6E	; 110
     7d0:	90 e0       	ldi	r25, 0x00	; 0
     7d2:	84 dc       	rcall	.-1784   	; 0xdc <delayms>
     7d4:	cf df       	rcall	.-98     	; 0x774 <MyRightWheelBreak>
     7d6:	8a ef       	ldi	r24, 0xFA	; 250
     7d8:	90 e0       	ldi	r25, 0x00	; 0
     7da:	80 dc       	rcall	.-1792   	; 0xdc <delayms>
     7dc:	b6 df       	rcall	.-148    	; 0x74a <MyLeftWheelForward>
     7de:	8e e6       	ldi	r24, 0x6E	; 110
     7e0:	90 e0       	ldi	r25, 0x00	; 0
     7e2:	7c dc       	rcall	.-1800   	; 0xdc <delayms>
     7e4:	bb df       	rcall	.-138    	; 0x75c <MyLeftWheelBreak>
     7e6:	8a ef       	ldi	r24, 0xFA	; 250
     7e8:	90 e0       	ldi	r25, 0x00	; 0
     7ea:	78 dc       	rcall	.-1808   	; 0xdc <delayms>
     7ec:	21 97       	sbiw	r28, 0x01	; 1
     7ee:	71 f7       	brne	.-36     	; 0x7cc <StepForward+0xa>
     7f0:	d0 df       	rcall	.-96     	; 0x792 <FullStop>
     7f2:	df 91       	pop	r29
     7f4:	cf 91       	pop	r28
     7f6:	08 95       	ret

000007f8 <BackwardBreak>:
     7f8:	cf 93       	push	r28
     7fa:	df 93       	push	r29
     7fc:	ec 01       	movw	r28, r24
     7fe:	a8 df       	rcall	.-176    	; 0x750 <MyLeftWheelBackward>
     800:	b3 df       	rcall	.-154    	; 0x768 <MyRightWheelBackward>
     802:	20 97       	sbiw	r28, 0x00	; 0
     804:	29 f0       	breq	.+10     	; 0x810 <BackwardBreak+0x18>
     806:	8e e6       	ldi	r24, 0x6E	; 110
     808:	90 e0       	ldi	r25, 0x00	; 0
     80a:	68 dc       	rcall	.-1840   	; 0xdc <delayms>
     80c:	21 97       	sbiw	r28, 0x01	; 1
     80e:	d9 f7       	brne	.-10     	; 0x806 <BackwardBreak+0xe>
     810:	a5 df       	rcall	.-182    	; 0x75c <MyLeftWheelBreak>
     812:	b0 df       	rcall	.-160    	; 0x774 <MyRightWheelBreak>
     814:	a0 df       	rcall	.-192    	; 0x756 <MyLeftWheelStop>
     816:	ab df       	rcall	.-170    	; 0x76e <MyRightWheelStop>
     818:	df 91       	pop	r29
     81a:	cf 91       	pop	r28
     81c:	08 95       	ret

0000081e <ForwardBreak>:
     81e:	cf 93       	push	r28
     820:	df 93       	push	r29
     822:	ec 01       	movw	r28, r24
     824:	92 df       	rcall	.-220    	; 0x74a <MyLeftWheelForward>
     826:	9d df       	rcall	.-198    	; 0x762 <MyRightWheelForward>
     828:	20 97       	sbiw	r28, 0x00	; 0
     82a:	29 f0       	breq	.+10     	; 0x836 <ForwardBreak+0x18>
     82c:	8e e6       	ldi	r24, 0x6E	; 110
     82e:	90 e0       	ldi	r25, 0x00	; 0
     830:	55 dc       	rcall	.-1878   	; 0xdc <delayms>
     832:	21 97       	sbiw	r28, 0x01	; 1
     834:	d9 f7       	brne	.-10     	; 0x82c <ForwardBreak+0xe>
     836:	9e df       	rcall	.-196    	; 0x774 <MyRightWheelBreak>
     838:	91 df       	rcall	.-222    	; 0x75c <MyLeftWheelBreak>
     83a:	8d df       	rcall	.-230    	; 0x756 <MyLeftWheelStop>
     83c:	98 df       	rcall	.-208    	; 0x76e <MyRightWheelStop>
     83e:	df 91       	pop	r29
     840:	cf 91       	pop	r28
     842:	08 95       	ret

00000844 <LeftProxOn>:
     844:	80 b3       	in	r24, 0x10	; 16
     846:	65 e0       	ldi	r22, 0x05	; 5
     848:	70 e0       	ldi	r23, 0x00	; 0
     84a:	90 e0       	ldi	r25, 0x00	; 0
     84c:	60 dc       	rcall	.-1856   	; 0x10e <bit_get>
     84e:	08 95       	ret

00000850 <RightProxOn>:
     850:	80 b3       	in	r24, 0x10	; 16
     852:	66 e0       	ldi	r22, 0x06	; 6
     854:	70 e0       	ldi	r23, 0x00	; 0
     856:	90 e0       	ldi	r25, 0x00	; 0
     858:	5a dc       	rcall	.-1868   	; 0x10e <bit_get>
     85a:	08 95       	ret

0000085c <loop>:
     85c:	08 95       	ret

0000085e <ShiftIn>:
     85e:	0f 93       	push	r16
     860:	1f 93       	push	r17
     862:	cf 93       	push	r28
     864:	df 93       	push	r29
     866:	88 98       	cbi	0x11, 0	; 17
     868:	99 23       	and	r25, r25
     86a:	1c f4       	brge	.+6      	; 0x872 <ShiftIn+0x14>
     86c:	00 e0       	ldi	r16, 0x00	; 0
     86e:	10 e0       	ldi	r17, 0x00	; 0
     870:	1f c0       	rjmp	.+62     	; 0x8b0 <ShiftIn+0x52>
     872:	ec 01       	movw	r28, r24
     874:	00 e0       	ldi	r16, 0x00	; 0
     876:	10 e0       	ldi	r17, 0x00	; 0
     878:	91 9a       	sbi	0x12, 1	; 18
     87a:	82 e0       	ldi	r24, 0x02	; 2
     87c:	8a 95       	dec	r24
     87e:	f1 f7       	brne	.-4      	; 0x87c <ShiftIn+0x1e>
     880:	82 b3       	in	r24, 0x12	; 18
     882:	60 e0       	ldi	r22, 0x00	; 0
     884:	70 e0       	ldi	r23, 0x00	; 0
     886:	90 e0       	ldi	r25, 0x00	; 0
     888:	42 dc       	rcall	.-1916   	; 0x10e <bit_get>
     88a:	89 2b       	or	r24, r25
     88c:	39 f0       	breq	.+14     	; 0x89c <ShiftIn+0x3e>
     88e:	c8 01       	movw	r24, r16
     890:	88 0f       	add	r24, r24
     892:	99 1f       	adc	r25, r25
     894:	8c 01       	movw	r16, r24
     896:	0f 5f       	subi	r16, 0xFF	; 255
     898:	1f 4f       	sbci	r17, 0xFF	; 255
     89a:	02 c0       	rjmp	.+4      	; 0x8a0 <ShiftIn+0x42>
     89c:	00 0f       	add	r16, r16
     89e:	11 1f       	adc	r17, r17
     8a0:	91 98       	cbi	0x12, 1	; 18
     8a2:	82 e0       	ldi	r24, 0x02	; 2
     8a4:	8a 95       	dec	r24
     8a6:	f1 f7       	brne	.-4      	; 0x8a4 <ShiftIn+0x46>
     8a8:	21 97       	sbiw	r28, 0x01	; 1
     8aa:	32 f7       	brpl	.-52     	; 0x878 <ShiftIn+0x1a>
     8ac:	13 fd       	sbrc	r17, 3
     8ae:	18 6f       	ori	r17, 0xF8	; 248
     8b0:	c8 01       	movw	r24, r16
     8b2:	df 91       	pop	r29
     8b4:	cf 91       	pop	r28
     8b6:	1f 91       	pop	r17
     8b8:	0f 91       	pop	r16
     8ba:	08 95       	ret

000008bc <ShiftOut>:
     8bc:	0f 93       	push	r16
     8be:	1f 93       	push	r17
     8c0:	cf 93       	push	r28
     8c2:	df 93       	push	r29
     8c4:	8c 01       	movw	r16, r24
     8c6:	77 23       	and	r23, r23
     8c8:	cc f0       	brlt	.+50     	; 0x8fc <ShiftOut+0x40>
     8ca:	eb 01       	movw	r28, r22
     8cc:	91 98       	cbi	0x12, 1	; 18
     8ce:	81 e0       	ldi	r24, 0x01	; 1
     8d0:	90 e0       	ldi	r25, 0x00	; 0
     8d2:	0c 2e       	mov	r0, r28
     8d4:	02 c0       	rjmp	.+4      	; 0x8da <ShiftOut+0x1e>
     8d6:	88 0f       	add	r24, r24
     8d8:	99 1f       	adc	r25, r25
     8da:	0a 94       	dec	r0
     8dc:	e2 f7       	brpl	.-8      	; 0x8d6 <ShiftOut+0x1a>
     8de:	9c 01       	movw	r18, r24
     8e0:	20 23       	and	r18, r16
     8e2:	31 23       	and	r19, r17
     8e4:	82 17       	cp	r24, r18
     8e6:	93 07       	cpc	r25, r19
     8e8:	11 f4       	brne	.+4      	; 0x8ee <ShiftOut+0x32>
     8ea:	90 9a       	sbi	0x12, 0	; 18
     8ec:	01 c0       	rjmp	.+2      	; 0x8f0 <ShiftOut+0x34>
     8ee:	90 98       	cbi	0x12, 0	; 18
     8f0:	91 9a       	sbi	0x12, 1	; 18
     8f2:	81 e0       	ldi	r24, 0x01	; 1
     8f4:	90 e0       	ldi	r25, 0x00	; 0
     8f6:	f2 db       	rcall	.-2076   	; 0xdc <delayms>
     8f8:	21 97       	sbiw	r28, 0x01	; 1
     8fa:	42 f7       	brpl	.-48     	; 0x8cc <ShiftOut+0x10>
     8fc:	df 91       	pop	r29
     8fe:	cf 91       	pop	r28
     900:	1f 91       	pop	r17
     902:	0f 91       	pop	r16
     904:	08 95       	ret

00000906 <HM55B_ReadCommand>:
     906:	90 9a       	sbi	0x12, 0	; 18
     908:	92 98       	cbi	0x12, 2	; 18
     90a:	63 e0       	ldi	r22, 0x03	; 3
     90c:	70 e0       	ldi	r23, 0x00	; 0
     90e:	8c e0       	ldi	r24, 0x0C	; 12
     910:	90 e0       	ldi	r25, 0x00	; 0
     912:	d4 df       	rcall	.-88     	; 0x8bc <ShiftOut>
     914:	83 e0       	ldi	r24, 0x03	; 3
     916:	90 e0       	ldi	r25, 0x00	; 0
     918:	a2 df       	rcall	.-188    	; 0x85e <ShiftIn>
     91a:	08 95       	ret

0000091c <HM55B_StartMeasurementCommand>:
     91c:	90 9a       	sbi	0x12, 0	; 18
     91e:	92 98       	cbi	0x12, 2	; 18
     920:	63 e0       	ldi	r22, 0x03	; 3
     922:	70 e0       	ldi	r23, 0x00	; 0
     924:	88 e0       	ldi	r24, 0x08	; 8
     926:	90 e0       	ldi	r25, 0x00	; 0
     928:	c9 df       	rcall	.-110    	; 0x8bc <ShiftOut>
     92a:	92 9a       	sbi	0x12, 2	; 18
     92c:	08 95       	ret

0000092e <HM55B_Reset>:
     92e:	88 9a       	sbi	0x11, 0	; 17
     930:	92 98       	cbi	0x12, 2	; 18
     932:	63 e0       	ldi	r22, 0x03	; 3
     934:	70 e0       	ldi	r23, 0x00	; 0
     936:	80 e0       	ldi	r24, 0x00	; 0
     938:	90 e0       	ldi	r25, 0x00	; 0
     93a:	c0 df       	rcall	.-128    	; 0x8bc <ShiftOut>
     93c:	92 9a       	sbi	0x12, 2	; 18
     93e:	08 95       	ret

00000940 <setup>:
     940:	f6 df       	rcall	.-20     	; 0x92e <HM55B_Reset>
     942:	08 95       	ret

00000944 <SPI_MasterInit>:
     944:	88 e2       	ldi	r24, 0x28	; 40
     946:	88 bb       	out	0x18, r24	; 24
     948:	81 e5       	ldi	r24, 0x51	; 81
     94a:	8d b9       	out	0x0d, r24	; 13
     94c:	08 95       	ret

0000094e <SPI_MasterTransmit>:
     94e:	8f b9       	out	0x0f, r24	; 15
     950:	77 9b       	sbis	0x0e, 7	; 14
     952:	fe cf       	rjmp	.-4      	; 0x950 <SPI_MasterTransmit+0x2>
     954:	08 95       	ret

00000956 <SPI_MasterRecieve>:
     956:	08 95       	ret

00000958 <SampleSerial>:
     958:	f5 df       	rcall	.-22     	; 0x944 <SPI_MasterInit>
     95a:	81 e4       	ldi	r24, 0x41	; 65
     95c:	f8 df       	rcall	.-16     	; 0x94e <SPI_MasterTransmit>
     95e:	ff cf       	rjmp	.-2      	; 0x95e <SampleSerial+0x6>

00000960 <__divsf3>:
     960:	a8 e1       	ldi	r26, 0x18	; 24
     962:	b0 e0       	ldi	r27, 0x00	; 0
     964:	e5 eb       	ldi	r30, 0xB5	; 181
     966:	f4 e0       	ldi	r31, 0x04	; 4
     968:	59 c3       	rjmp	.+1714   	; 0x101c <__prologue_saves__+0x10>
     96a:	69 83       	std	Y+1, r22	; 0x01
     96c:	7a 83       	std	Y+2, r23	; 0x02
     96e:	8b 83       	std	Y+3, r24	; 0x03
     970:	9c 83       	std	Y+4, r25	; 0x04
     972:	2d 83       	std	Y+5, r18	; 0x05
     974:	3e 83       	std	Y+6, r19	; 0x06
     976:	4f 83       	std	Y+7, r20	; 0x07
     978:	58 87       	std	Y+8, r21	; 0x08
     97a:	8e 01       	movw	r16, r28
     97c:	07 5f       	subi	r16, 0xF7	; 247
     97e:	1f 4f       	sbci	r17, 0xFF	; 255
     980:	b8 01       	movw	r22, r16
     982:	ce 01       	movw	r24, r28
     984:	01 96       	adiw	r24, 0x01	; 1
     986:	73 d2       	rcall	.+1254   	; 0xe6e <__unpack_f>
     988:	81 e1       	ldi	r24, 0x11	; 17
     98a:	e8 2e       	mov	r14, r24
     98c:	f1 2c       	mov	r15, r1
     98e:	ec 0e       	add	r14, r28
     990:	fd 1e       	adc	r15, r29
     992:	b7 01       	movw	r22, r14
     994:	ce 01       	movw	r24, r28
     996:	05 96       	adiw	r24, 0x05	; 5
     998:	6a d2       	rcall	.+1236   	; 0xe6e <__unpack_f>
     99a:	39 85       	ldd	r19, Y+9	; 0x09
     99c:	32 30       	cpi	r19, 0x02	; 2
     99e:	f8 f0       	brcs	.+62     	; 0x9de <__divsf3+0x7e>
     9a0:	29 89       	ldd	r18, Y+17	; 0x11
     9a2:	22 30       	cpi	r18, 0x02	; 2
     9a4:	10 f4       	brcc	.+4      	; 0x9aa <__divsf3+0x4a>
     9a6:	b7 01       	movw	r22, r14
     9a8:	86 c0       	rjmp	.+268    	; 0xab6 <__divsf3+0x156>
     9aa:	8a 85       	ldd	r24, Y+10	; 0x0a
     9ac:	9a 89       	ldd	r25, Y+18	; 0x12
     9ae:	89 27       	eor	r24, r25
     9b0:	8a 87       	std	Y+10, r24	; 0x0a
     9b2:	34 30       	cpi	r19, 0x04	; 4
     9b4:	11 f0       	breq	.+4      	; 0x9ba <__divsf3+0x5a>
     9b6:	32 30       	cpi	r19, 0x02	; 2
     9b8:	29 f4       	brne	.+10     	; 0x9c4 <__divsf3+0x64>
     9ba:	32 17       	cp	r19, r18
     9bc:	81 f4       	brne	.+32     	; 0x9de <__divsf3+0x7e>
     9be:	6c e6       	ldi	r22, 0x6C	; 108
     9c0:	70 e0       	ldi	r23, 0x00	; 0
     9c2:	79 c0       	rjmp	.+242    	; 0xab6 <__divsf3+0x156>
     9c4:	24 30       	cpi	r18, 0x04	; 4
     9c6:	39 f4       	brne	.+14     	; 0x9d6 <__divsf3+0x76>
     9c8:	1d 86       	std	Y+13, r1	; 0x0d
     9ca:	1e 86       	std	Y+14, r1	; 0x0e
     9cc:	1f 86       	std	Y+15, r1	; 0x0f
     9ce:	18 8a       	std	Y+16, r1	; 0x10
     9d0:	1c 86       	std	Y+12, r1	; 0x0c
     9d2:	1b 86       	std	Y+11, r1	; 0x0b
     9d4:	04 c0       	rjmp	.+8      	; 0x9de <__divsf3+0x7e>
     9d6:	22 30       	cpi	r18, 0x02	; 2
     9d8:	21 f4       	brne	.+8      	; 0x9e2 <__divsf3+0x82>
     9da:	84 e0       	ldi	r24, 0x04	; 4
     9dc:	89 87       	std	Y+9, r24	; 0x09
     9de:	b8 01       	movw	r22, r16
     9e0:	6a c0       	rjmp	.+212    	; 0xab6 <__divsf3+0x156>
     9e2:	6b 85       	ldd	r22, Y+11	; 0x0b
     9e4:	7c 85       	ldd	r23, Y+12	; 0x0c
     9e6:	8b 89       	ldd	r24, Y+19	; 0x13
     9e8:	9c 89       	ldd	r25, Y+20	; 0x14
     9ea:	68 1b       	sub	r22, r24
     9ec:	79 0b       	sbc	r23, r25
     9ee:	7c 87       	std	Y+12, r23	; 0x0c
     9f0:	6b 87       	std	Y+11, r22	; 0x0b
     9f2:	2d 85       	ldd	r18, Y+13	; 0x0d
     9f4:	3e 85       	ldd	r19, Y+14	; 0x0e
     9f6:	4f 85       	ldd	r20, Y+15	; 0x0f
     9f8:	58 89       	ldd	r21, Y+16	; 0x10
     9fa:	8d 89       	ldd	r24, Y+21	; 0x15
     9fc:	9e 89       	ldd	r25, Y+22	; 0x16
     9fe:	af 89       	ldd	r26, Y+23	; 0x17
     a00:	b8 8d       	ldd	r27, Y+24	; 0x18
     a02:	28 17       	cp	r18, r24
     a04:	39 07       	cpc	r19, r25
     a06:	4a 07       	cpc	r20, r26
     a08:	5b 07       	cpc	r21, r27
     a0a:	40 f4       	brcc	.+16     	; 0xa1c <__divsf3+0xbc>
     a0c:	22 0f       	add	r18, r18
     a0e:	33 1f       	adc	r19, r19
     a10:	44 1f       	adc	r20, r20
     a12:	55 1f       	adc	r21, r21
     a14:	61 50       	subi	r22, 0x01	; 1
     a16:	70 40       	sbci	r23, 0x00	; 0
     a18:	7c 87       	std	Y+12, r23	; 0x0c
     a1a:	6b 87       	std	Y+11, r22	; 0x0b
     a1c:	a1 2c       	mov	r10, r1
     a1e:	b1 2c       	mov	r11, r1
     a20:	c1 2c       	mov	r12, r1
     a22:	10 e4       	ldi	r17, 0x40	; 64
     a24:	d1 2e       	mov	r13, r17
     a26:	ee 24       	eor	r14, r14
     a28:	ff 24       	eor	r15, r15
     a2a:	87 01       	movw	r16, r14
     a2c:	60 e0       	ldi	r22, 0x00	; 0
     a2e:	70 e0       	ldi	r23, 0x00	; 0
     a30:	28 17       	cp	r18, r24
     a32:	39 07       	cpc	r19, r25
     a34:	4a 07       	cpc	r20, r26
     a36:	5b 07       	cpc	r21, r27
     a38:	40 f0       	brcs	.+16     	; 0xa4a <__divsf3+0xea>
     a3a:	ea 28       	or	r14, r10
     a3c:	fb 28       	or	r15, r11
     a3e:	0c 29       	or	r16, r12
     a40:	1d 29       	or	r17, r13
     a42:	28 1b       	sub	r18, r24
     a44:	39 0b       	sbc	r19, r25
     a46:	4a 0b       	sbc	r20, r26
     a48:	5b 0b       	sbc	r21, r27
     a4a:	d6 94       	lsr	r13
     a4c:	c7 94       	ror	r12
     a4e:	b7 94       	ror	r11
     a50:	a7 94       	ror	r10
     a52:	22 0f       	add	r18, r18
     a54:	33 1f       	adc	r19, r19
     a56:	44 1f       	adc	r20, r20
     a58:	55 1f       	adc	r21, r21
     a5a:	6f 5f       	subi	r22, 0xFF	; 255
     a5c:	7f 4f       	sbci	r23, 0xFF	; 255
     a5e:	6f 31       	cpi	r22, 0x1F	; 31
     a60:	71 05       	cpc	r23, r1
     a62:	31 f7       	brne	.-52     	; 0xa30 <__divsf3+0xd0>
     a64:	d8 01       	movw	r26, r16
     a66:	c7 01       	movw	r24, r14
     a68:	8f 77       	andi	r24, 0x7F	; 127
     a6a:	90 70       	andi	r25, 0x00	; 0
     a6c:	a0 70       	andi	r26, 0x00	; 0
     a6e:	b0 70       	andi	r27, 0x00	; 0
     a70:	80 34       	cpi	r24, 0x40	; 64
     a72:	91 05       	cpc	r25, r1
     a74:	a1 05       	cpc	r26, r1
     a76:	b1 05       	cpc	r27, r1
     a78:	b9 f4       	brne	.+46     	; 0xaa8 <__divsf3+0x148>
     a7a:	e7 fc       	sbrc	r14, 7
     a7c:	15 c0       	rjmp	.+42     	; 0xaa8 <__divsf3+0x148>
     a7e:	21 15       	cp	r18, r1
     a80:	31 05       	cpc	r19, r1
     a82:	41 05       	cpc	r20, r1
     a84:	51 05       	cpc	r21, r1
     a86:	81 f0       	breq	.+32     	; 0xaa8 <__divsf3+0x148>
     a88:	80 e4       	ldi	r24, 0x40	; 64
     a8a:	90 e0       	ldi	r25, 0x00	; 0
     a8c:	a0 e0       	ldi	r26, 0x00	; 0
     a8e:	b0 e0       	ldi	r27, 0x00	; 0
     a90:	e8 0e       	add	r14, r24
     a92:	f9 1e       	adc	r15, r25
     a94:	0a 1f       	adc	r16, r26
     a96:	1b 1f       	adc	r17, r27
     a98:	80 e8       	ldi	r24, 0x80	; 128
     a9a:	9f ef       	ldi	r25, 0xFF	; 255
     a9c:	af ef       	ldi	r26, 0xFF	; 255
     a9e:	bf ef       	ldi	r27, 0xFF	; 255
     aa0:	e8 22       	and	r14, r24
     aa2:	f9 22       	and	r15, r25
     aa4:	0a 23       	and	r16, r26
     aa6:	1b 23       	and	r17, r27
     aa8:	ed 86       	std	Y+13, r14	; 0x0d
     aaa:	fe 86       	std	Y+14, r15	; 0x0e
     aac:	0f 87       	std	Y+15, r16	; 0x0f
     aae:	18 8b       	std	Y+16, r17	; 0x10
     ab0:	be 01       	movw	r22, r28
     ab2:	67 5f       	subi	r22, 0xF7	; 247
     ab4:	7f 4f       	sbci	r23, 0xFF	; 255
     ab6:	cb 01       	movw	r24, r22
     ab8:	fa d0       	rcall	.+500    	; 0xcae <__pack_f>
     aba:	ea e0       	ldi	r30, 0x0A	; 10
     abc:	68 96       	adiw	r28, 0x18	; 24
     abe:	ca c2       	rjmp	.+1428   	; 0x1054 <__epilogue_restores__+0x10>

00000ac0 <__floatsisf>:
     ac0:	a8 e0       	ldi	r26, 0x08	; 8
     ac2:	b0 e0       	ldi	r27, 0x00	; 0
     ac4:	e5 e6       	ldi	r30, 0x65	; 101
     ac6:	f5 e0       	ldi	r31, 0x05	; 5
     ac8:	aa c2       	rjmp	.+1364   	; 0x101e <__prologue_saves__+0x12>
     aca:	9b 01       	movw	r18, r22
     acc:	ac 01       	movw	r20, r24
     ace:	83 e0       	ldi	r24, 0x03	; 3
     ad0:	89 83       	std	Y+1, r24	; 0x01
     ad2:	da 01       	movw	r26, r20
     ad4:	c9 01       	movw	r24, r18
     ad6:	88 27       	eor	r24, r24
     ad8:	b7 fd       	sbrc	r27, 7
     ada:	83 95       	inc	r24
     adc:	99 27       	eor	r25, r25
     ade:	aa 27       	eor	r26, r26
     ae0:	bb 27       	eor	r27, r27
     ae2:	b8 2e       	mov	r11, r24
     ae4:	21 15       	cp	r18, r1
     ae6:	31 05       	cpc	r19, r1
     ae8:	41 05       	cpc	r20, r1
     aea:	51 05       	cpc	r21, r1
     aec:	19 f4       	brne	.+6      	; 0xaf4 <__floatsisf+0x34>
     aee:	82 e0       	ldi	r24, 0x02	; 2
     af0:	89 83       	std	Y+1, r24	; 0x01
     af2:	39 c0       	rjmp	.+114    	; 0xb66 <__floatsisf+0xa6>
     af4:	88 23       	and	r24, r24
     af6:	a9 f0       	breq	.+42     	; 0xb22 <__floatsisf+0x62>
     af8:	20 30       	cpi	r18, 0x00	; 0
     afa:	80 e0       	ldi	r24, 0x00	; 0
     afc:	38 07       	cpc	r19, r24
     afe:	80 e0       	ldi	r24, 0x00	; 0
     b00:	48 07       	cpc	r20, r24
     b02:	80 e8       	ldi	r24, 0x80	; 128
     b04:	58 07       	cpc	r21, r24
     b06:	29 f4       	brne	.+10     	; 0xb12 <__floatsisf+0x52>
     b08:	60 e0       	ldi	r22, 0x00	; 0
     b0a:	70 e0       	ldi	r23, 0x00	; 0
     b0c:	80 e0       	ldi	r24, 0x00	; 0
     b0e:	9f ec       	ldi	r25, 0xCF	; 207
     b10:	2e c0       	rjmp	.+92     	; 0xb6e <__floatsisf+0xae>
     b12:	ee 24       	eor	r14, r14
     b14:	ff 24       	eor	r15, r15
     b16:	87 01       	movw	r16, r14
     b18:	e2 1a       	sub	r14, r18
     b1a:	f3 0a       	sbc	r15, r19
     b1c:	04 0b       	sbc	r16, r20
     b1e:	15 0b       	sbc	r17, r21
     b20:	02 c0       	rjmp	.+4      	; 0xb26 <__floatsisf+0x66>
     b22:	79 01       	movw	r14, r18
     b24:	8a 01       	movw	r16, r20
     b26:	8e e1       	ldi	r24, 0x1E	; 30
     b28:	c8 2e       	mov	r12, r24
     b2a:	d1 2c       	mov	r13, r1
     b2c:	dc 82       	std	Y+4, r13	; 0x04
     b2e:	cb 82       	std	Y+3, r12	; 0x03
     b30:	ed 82       	std	Y+5, r14	; 0x05
     b32:	fe 82       	std	Y+6, r15	; 0x06
     b34:	0f 83       	std	Y+7, r16	; 0x07
     b36:	18 87       	std	Y+8, r17	; 0x08
     b38:	c8 01       	movw	r24, r16
     b3a:	b7 01       	movw	r22, r14
     b3c:	6b d0       	rcall	.+214    	; 0xc14 <__clzsi2>
     b3e:	01 97       	sbiw	r24, 0x01	; 1
     b40:	18 16       	cp	r1, r24
     b42:	19 06       	cpc	r1, r25
     b44:	84 f4       	brge	.+32     	; 0xb66 <__floatsisf+0xa6>
     b46:	08 2e       	mov	r0, r24
     b48:	04 c0       	rjmp	.+8      	; 0xb52 <__floatsisf+0x92>
     b4a:	ee 0c       	add	r14, r14
     b4c:	ff 1c       	adc	r15, r15
     b4e:	00 1f       	adc	r16, r16
     b50:	11 1f       	adc	r17, r17
     b52:	0a 94       	dec	r0
     b54:	d2 f7       	brpl	.-12     	; 0xb4a <__floatsisf+0x8a>
     b56:	ed 82       	std	Y+5, r14	; 0x05
     b58:	fe 82       	std	Y+6, r15	; 0x06
     b5a:	0f 83       	std	Y+7, r16	; 0x07
     b5c:	18 87       	std	Y+8, r17	; 0x08
     b5e:	c8 1a       	sub	r12, r24
     b60:	d9 0a       	sbc	r13, r25
     b62:	dc 82       	std	Y+4, r13	; 0x04
     b64:	cb 82       	std	Y+3, r12	; 0x03
     b66:	ba 82       	std	Y+2, r11	; 0x02
     b68:	ce 01       	movw	r24, r28
     b6a:	01 96       	adiw	r24, 0x01	; 1
     b6c:	a0 d0       	rcall	.+320    	; 0xcae <__pack_f>
     b6e:	e9 e0       	ldi	r30, 0x09	; 9
     b70:	28 96       	adiw	r28, 0x08	; 8
     b72:	71 c2       	rjmp	.+1250   	; 0x1056 <__epilogue_restores__+0x12>

00000b74 <__fixsfsi>:
     b74:	ac e0       	ldi	r26, 0x0C	; 12
     b76:	b0 e0       	ldi	r27, 0x00	; 0
     b78:	ef eb       	ldi	r30, 0xBF	; 191
     b7a:	f5 e0       	ldi	r31, 0x05	; 5
     b7c:	57 c2       	rjmp	.+1198   	; 0x102c <__prologue_saves__+0x20>
     b7e:	69 83       	std	Y+1, r22	; 0x01
     b80:	7a 83       	std	Y+2, r23	; 0x02
     b82:	8b 83       	std	Y+3, r24	; 0x03
     b84:	9c 83       	std	Y+4, r25	; 0x04
     b86:	be 01       	movw	r22, r28
     b88:	6b 5f       	subi	r22, 0xFB	; 251
     b8a:	7f 4f       	sbci	r23, 0xFF	; 255
     b8c:	ce 01       	movw	r24, r28
     b8e:	01 96       	adiw	r24, 0x01	; 1
     b90:	6e d1       	rcall	.+732    	; 0xe6e <__unpack_f>
     b92:	8d 81       	ldd	r24, Y+5	; 0x05
     b94:	82 30       	cpi	r24, 0x02	; 2
     b96:	a9 f1       	breq	.+106    	; 0xc02 <__fixsfsi+0x8e>
     b98:	82 30       	cpi	r24, 0x02	; 2
     b9a:	98 f1       	brcs	.+102    	; 0xc02 <__fixsfsi+0x8e>
     b9c:	84 30       	cpi	r24, 0x04	; 4
     b9e:	21 f4       	brne	.+8      	; 0xba8 <__fixsfsi+0x34>
     ba0:	8e 81       	ldd	r24, Y+6	; 0x06
     ba2:	88 23       	and	r24, r24
     ba4:	59 f4       	brne	.+22     	; 0xbbc <__fixsfsi+0x48>
     ba6:	0f c0       	rjmp	.+30     	; 0xbc6 <__fixsfsi+0x52>
     ba8:	2f 81       	ldd	r18, Y+7	; 0x07
     baa:	38 85       	ldd	r19, Y+8	; 0x08
     bac:	37 fd       	sbrc	r19, 7
     bae:	29 c0       	rjmp	.+82     	; 0xc02 <__fixsfsi+0x8e>
     bb0:	6e 81       	ldd	r22, Y+6	; 0x06
     bb2:	2f 31       	cpi	r18, 0x1F	; 31
     bb4:	31 05       	cpc	r19, r1
     bb6:	64 f0       	brlt	.+24     	; 0xbd0 <__fixsfsi+0x5c>
     bb8:	66 23       	and	r22, r22
     bba:	29 f0       	breq	.+10     	; 0xbc6 <__fixsfsi+0x52>
     bbc:	20 e0       	ldi	r18, 0x00	; 0
     bbe:	30 e0       	ldi	r19, 0x00	; 0
     bc0:	40 e0       	ldi	r20, 0x00	; 0
     bc2:	50 e8       	ldi	r21, 0x80	; 128
     bc4:	22 c0       	rjmp	.+68     	; 0xc0a <__fixsfsi+0x96>
     bc6:	2f ef       	ldi	r18, 0xFF	; 255
     bc8:	3f ef       	ldi	r19, 0xFF	; 255
     bca:	4f ef       	ldi	r20, 0xFF	; 255
     bcc:	5f e7       	ldi	r21, 0x7F	; 127
     bce:	1d c0       	rjmp	.+58     	; 0xc0a <__fixsfsi+0x96>
     bd0:	8e e1       	ldi	r24, 0x1E	; 30
     bd2:	90 e0       	ldi	r25, 0x00	; 0
     bd4:	82 1b       	sub	r24, r18
     bd6:	93 0b       	sbc	r25, r19
     bd8:	29 85       	ldd	r18, Y+9	; 0x09
     bda:	3a 85       	ldd	r19, Y+10	; 0x0a
     bdc:	4b 85       	ldd	r20, Y+11	; 0x0b
     bde:	5c 85       	ldd	r21, Y+12	; 0x0c
     be0:	04 c0       	rjmp	.+8      	; 0xbea <__fixsfsi+0x76>
     be2:	56 95       	lsr	r21
     be4:	47 95       	ror	r20
     be6:	37 95       	ror	r19
     be8:	27 95       	ror	r18
     bea:	8a 95       	dec	r24
     bec:	d2 f7       	brpl	.-12     	; 0xbe2 <__fixsfsi+0x6e>
     bee:	66 23       	and	r22, r22
     bf0:	61 f0       	breq	.+24     	; 0xc0a <__fixsfsi+0x96>
     bf2:	50 95       	com	r21
     bf4:	40 95       	com	r20
     bf6:	30 95       	com	r19
     bf8:	21 95       	neg	r18
     bfa:	3f 4f       	sbci	r19, 0xFF	; 255
     bfc:	4f 4f       	sbci	r20, 0xFF	; 255
     bfe:	5f 4f       	sbci	r21, 0xFF	; 255
     c00:	04 c0       	rjmp	.+8      	; 0xc0a <__fixsfsi+0x96>
     c02:	20 e0       	ldi	r18, 0x00	; 0
     c04:	30 e0       	ldi	r19, 0x00	; 0
     c06:	40 e0       	ldi	r20, 0x00	; 0
     c08:	50 e0       	ldi	r21, 0x00	; 0
     c0a:	ca 01       	movw	r24, r20
     c0c:	b9 01       	movw	r22, r18
     c0e:	e2 e0       	ldi	r30, 0x02	; 2
     c10:	2c 96       	adiw	r28, 0x0c	; 12
     c12:	28 c2       	rjmp	.+1104   	; 0x1064 <__epilogue_restores__+0x20>

00000c14 <__clzsi2>:
     c14:	ef 92       	push	r14
     c16:	ff 92       	push	r15
     c18:	0f 93       	push	r16
     c1a:	1f 93       	push	r17
     c1c:	9b 01       	movw	r18, r22
     c1e:	ac 01       	movw	r20, r24
     c20:	20 30       	cpi	r18, 0x00	; 0
     c22:	80 e0       	ldi	r24, 0x00	; 0
     c24:	38 07       	cpc	r19, r24
     c26:	81 e0       	ldi	r24, 0x01	; 1
     c28:	48 07       	cpc	r20, r24
     c2a:	80 e0       	ldi	r24, 0x00	; 0
     c2c:	58 07       	cpc	r21, r24
     c2e:	80 f4       	brcc	.+32     	; 0xc50 <__clzsi2+0x3c>
     c30:	2f 3f       	cpi	r18, 0xFF	; 255
     c32:	31 05       	cpc	r19, r1
     c34:	41 05       	cpc	r20, r1
     c36:	51 05       	cpc	r21, r1
     c38:	09 f0       	breq	.+2      	; 0xc3c <__clzsi2+0x28>
     c3a:	20 f4       	brcc	.+8      	; 0xc44 <__clzsi2+0x30>
     c3c:	ee 24       	eor	r14, r14
     c3e:	ff 24       	eor	r15, r15
     c40:	87 01       	movw	r16, r14
     c42:	19 c0       	rjmp	.+50     	; 0xc76 <__clzsi2+0x62>
     c44:	68 e0       	ldi	r22, 0x08	; 8
     c46:	e6 2e       	mov	r14, r22
     c48:	f1 2c       	mov	r15, r1
     c4a:	01 2d       	mov	r16, r1
     c4c:	11 2d       	mov	r17, r1
     c4e:	13 c0       	rjmp	.+38     	; 0xc76 <__clzsi2+0x62>
     c50:	20 30       	cpi	r18, 0x00	; 0
     c52:	80 e0       	ldi	r24, 0x00	; 0
     c54:	38 07       	cpc	r19, r24
     c56:	80 e0       	ldi	r24, 0x00	; 0
     c58:	48 07       	cpc	r20, r24
     c5a:	81 e0       	ldi	r24, 0x01	; 1
     c5c:	58 07       	cpc	r21, r24
     c5e:	30 f4       	brcc	.+12     	; 0xc6c <__clzsi2+0x58>
     c60:	90 e1       	ldi	r25, 0x10	; 16
     c62:	e9 2e       	mov	r14, r25
     c64:	f1 2c       	mov	r15, r1
     c66:	01 2d       	mov	r16, r1
     c68:	11 2d       	mov	r17, r1
     c6a:	05 c0       	rjmp	.+10     	; 0xc76 <__clzsi2+0x62>
     c6c:	88 e1       	ldi	r24, 0x18	; 24
     c6e:	e8 2e       	mov	r14, r24
     c70:	f1 2c       	mov	r15, r1
     c72:	01 2d       	mov	r16, r1
     c74:	11 2d       	mov	r17, r1
     c76:	80 e2       	ldi	r24, 0x20	; 32
     c78:	90 e0       	ldi	r25, 0x00	; 0
     c7a:	a0 e0       	ldi	r26, 0x00	; 0
     c7c:	b0 e0       	ldi	r27, 0x00	; 0
     c7e:	8e 19       	sub	r24, r14
     c80:	9f 09       	sbc	r25, r15
     c82:	a0 0b       	sbc	r26, r16
     c84:	b1 0b       	sbc	r27, r17
     c86:	04 c0       	rjmp	.+8      	; 0xc90 <__clzsi2+0x7c>
     c88:	56 95       	lsr	r21
     c8a:	47 95       	ror	r20
     c8c:	37 95       	ror	r19
     c8e:	27 95       	ror	r18
     c90:	ea 94       	dec	r14
     c92:	d2 f7       	brpl	.-12     	; 0xc88 <__clzsi2+0x74>
     c94:	f9 01       	movw	r30, r18
     c96:	ec 58       	subi	r30, 0x8C	; 140
     c98:	ff 4f       	sbci	r31, 0xFF	; 255
     c9a:	20 81       	ld	r18, Z
     c9c:	82 1b       	sub	r24, r18
     c9e:	91 09       	sbc	r25, r1
     ca0:	a1 09       	sbc	r26, r1
     ca2:	b1 09       	sbc	r27, r1
     ca4:	1f 91       	pop	r17
     ca6:	0f 91       	pop	r16
     ca8:	ff 90       	pop	r15
     caa:	ef 90       	pop	r14
     cac:	08 95       	ret

00000cae <__pack_f>:
     cae:	9f 92       	push	r9
     cb0:	af 92       	push	r10
     cb2:	bf 92       	push	r11
     cb4:	cf 92       	push	r12
     cb6:	df 92       	push	r13
     cb8:	ef 92       	push	r14
     cba:	ff 92       	push	r15
     cbc:	0f 93       	push	r16
     cbe:	1f 93       	push	r17
     cc0:	ee 24       	eor	r14, r14
     cc2:	ff 24       	eor	r15, r15
     cc4:	87 01       	movw	r16, r14
     cc6:	fc 01       	movw	r30, r24
     cc8:	24 81       	ldd	r18, Z+4	; 0x04
     cca:	35 81       	ldd	r19, Z+5	; 0x05
     ccc:	46 81       	ldd	r20, Z+6	; 0x06
     cce:	57 81       	ldd	r21, Z+7	; 0x07
     cd0:	91 80       	ldd	r9, Z+1	; 0x01
     cd2:	80 81       	ld	r24, Z
     cd4:	82 30       	cpi	r24, 0x02	; 2
     cd6:	10 f4       	brcc	.+4      	; 0xcdc <__pack_f+0x2e>
     cd8:	40 61       	ori	r20, 0x10	; 16
     cda:	a2 c0       	rjmp	.+324    	; 0xe20 <__pack_f+0x172>
     cdc:	84 30       	cpi	r24, 0x04	; 4
     cde:	09 f4       	brne	.+2      	; 0xce2 <__pack_f+0x34>
     ce0:	9b c0       	rjmp	.+310    	; 0xe18 <__pack_f+0x16a>
     ce2:	82 30       	cpi	r24, 0x02	; 2
     ce4:	29 f4       	brne	.+10     	; 0xcf0 <__pack_f+0x42>
     ce6:	20 e0       	ldi	r18, 0x00	; 0
     ce8:	30 e0       	ldi	r19, 0x00	; 0
     cea:	40 e0       	ldi	r20, 0x00	; 0
     cec:	50 e0       	ldi	r21, 0x00	; 0
     cee:	05 c0       	rjmp	.+10     	; 0xcfa <__pack_f+0x4c>
     cf0:	21 15       	cp	r18, r1
     cf2:	31 05       	cpc	r19, r1
     cf4:	41 05       	cpc	r20, r1
     cf6:	51 05       	cpc	r21, r1
     cf8:	19 f4       	brne	.+6      	; 0xd00 <__pack_f+0x52>
     cfa:	e0 e0       	ldi	r30, 0x00	; 0
     cfc:	f0 e0       	ldi	r31, 0x00	; 0
     cfe:	92 c0       	rjmp	.+292    	; 0xe24 <__pack_f+0x176>
     d00:	82 81       	ldd	r24, Z+2	; 0x02
     d02:	93 81       	ldd	r25, Z+3	; 0x03
     d04:	6f ef       	ldi	r22, 0xFF	; 255
     d06:	82 38       	cpi	r24, 0x82	; 130
     d08:	96 07       	cpc	r25, r22
     d0a:	0c f0       	brlt	.+2      	; 0xd0e <__pack_f+0x60>
     d0c:	5a c0       	rjmp	.+180    	; 0xdc2 <__pack_f+0x114>
     d0e:	62 e8       	ldi	r22, 0x82	; 130
     d10:	7f ef       	ldi	r23, 0xFF	; 255
     d12:	68 1b       	sub	r22, r24
     d14:	79 0b       	sbc	r23, r25
     d16:	6a 31       	cpi	r22, 0x1A	; 26
     d18:	71 05       	cpc	r23, r1
     d1a:	2c f0       	brlt	.+10     	; 0xd26 <__pack_f+0x78>
     d1c:	20 e0       	ldi	r18, 0x00	; 0
     d1e:	30 e0       	ldi	r19, 0x00	; 0
     d20:	40 e0       	ldi	r20, 0x00	; 0
     d22:	50 e0       	ldi	r21, 0x00	; 0
     d24:	2a c0       	rjmp	.+84     	; 0xd7a <__pack_f+0xcc>
     d26:	aa 24       	eor	r10, r10
     d28:	bb 24       	eor	r11, r11
     d2a:	65 01       	movw	r12, r10
     d2c:	81 e0       	ldi	r24, 0x01	; 1
     d2e:	90 e0       	ldi	r25, 0x00	; 0
     d30:	a0 e0       	ldi	r26, 0x00	; 0
     d32:	b0 e0       	ldi	r27, 0x00	; 0
     d34:	06 2e       	mov	r0, r22
     d36:	04 c0       	rjmp	.+8      	; 0xd40 <__pack_f+0x92>
     d38:	88 0f       	add	r24, r24
     d3a:	99 1f       	adc	r25, r25
     d3c:	aa 1f       	adc	r26, r26
     d3e:	bb 1f       	adc	r27, r27
     d40:	0a 94       	dec	r0
     d42:	d2 f7       	brpl	.-12     	; 0xd38 <__pack_f+0x8a>
     d44:	01 97       	sbiw	r24, 0x01	; 1
     d46:	a1 09       	sbc	r26, r1
     d48:	b1 09       	sbc	r27, r1
     d4a:	82 23       	and	r24, r18
     d4c:	93 23       	and	r25, r19
     d4e:	a4 23       	and	r26, r20
     d50:	b5 23       	and	r27, r21
     d52:	00 97       	sbiw	r24, 0x00	; 0
     d54:	a1 05       	cpc	r26, r1
     d56:	b1 05       	cpc	r27, r1
     d58:	29 f0       	breq	.+10     	; 0xd64 <__pack_f+0xb6>
     d5a:	71 e0       	ldi	r23, 0x01	; 1
     d5c:	a7 2e       	mov	r10, r23
     d5e:	b1 2c       	mov	r11, r1
     d60:	c1 2c       	mov	r12, r1
     d62:	d1 2c       	mov	r13, r1
     d64:	04 c0       	rjmp	.+8      	; 0xd6e <__pack_f+0xc0>
     d66:	56 95       	lsr	r21
     d68:	47 95       	ror	r20
     d6a:	37 95       	ror	r19
     d6c:	27 95       	ror	r18
     d6e:	6a 95       	dec	r22
     d70:	d2 f7       	brpl	.-12     	; 0xd66 <__pack_f+0xb8>
     d72:	2a 29       	or	r18, r10
     d74:	3b 29       	or	r19, r11
     d76:	4c 29       	or	r20, r12
     d78:	5d 29       	or	r21, r13
     d7a:	da 01       	movw	r26, r20
     d7c:	c9 01       	movw	r24, r18
     d7e:	8f 77       	andi	r24, 0x7F	; 127
     d80:	90 70       	andi	r25, 0x00	; 0
     d82:	a0 70       	andi	r26, 0x00	; 0
     d84:	b0 70       	andi	r27, 0x00	; 0
     d86:	80 34       	cpi	r24, 0x40	; 64
     d88:	91 05       	cpc	r25, r1
     d8a:	a1 05       	cpc	r26, r1
     d8c:	b1 05       	cpc	r27, r1
     d8e:	39 f4       	brne	.+14     	; 0xd9e <__pack_f+0xf0>
     d90:	27 ff       	sbrs	r18, 7
     d92:	09 c0       	rjmp	.+18     	; 0xda6 <__pack_f+0xf8>
     d94:	20 5c       	subi	r18, 0xC0	; 192
     d96:	3f 4f       	sbci	r19, 0xFF	; 255
     d98:	4f 4f       	sbci	r20, 0xFF	; 255
     d9a:	5f 4f       	sbci	r21, 0xFF	; 255
     d9c:	04 c0       	rjmp	.+8      	; 0xda6 <__pack_f+0xf8>
     d9e:	21 5c       	subi	r18, 0xC1	; 193
     da0:	3f 4f       	sbci	r19, 0xFF	; 255
     da2:	4f 4f       	sbci	r20, 0xFF	; 255
     da4:	5f 4f       	sbci	r21, 0xFF	; 255
     da6:	80 e0       	ldi	r24, 0x00	; 0
     da8:	90 e0       	ldi	r25, 0x00	; 0
     daa:	20 30       	cpi	r18, 0x00	; 0
     dac:	60 e0       	ldi	r22, 0x00	; 0
     dae:	36 07       	cpc	r19, r22
     db0:	60 e0       	ldi	r22, 0x00	; 0
     db2:	46 07       	cpc	r20, r22
     db4:	60 e4       	ldi	r22, 0x40	; 64
     db6:	56 07       	cpc	r21, r22
     db8:	10 f0       	brcs	.+4      	; 0xdbe <__pack_f+0x110>
     dba:	81 e0       	ldi	r24, 0x01	; 1
     dbc:	90 e0       	ldi	r25, 0x00	; 0
     dbe:	fc 01       	movw	r30, r24
     dc0:	23 c0       	rjmp	.+70     	; 0xe08 <__pack_f+0x15a>
     dc2:	80 38       	cpi	r24, 0x80	; 128
     dc4:	91 05       	cpc	r25, r1
     dc6:	44 f5       	brge	.+80     	; 0xe18 <__pack_f+0x16a>
     dc8:	fc 01       	movw	r30, r24
     dca:	e1 58       	subi	r30, 0x81	; 129
     dcc:	ff 4f       	sbci	r31, 0xFF	; 255
     dce:	da 01       	movw	r26, r20
     dd0:	c9 01       	movw	r24, r18
     dd2:	8f 77       	andi	r24, 0x7F	; 127
     dd4:	90 70       	andi	r25, 0x00	; 0
     dd6:	a0 70       	andi	r26, 0x00	; 0
     dd8:	b0 70       	andi	r27, 0x00	; 0
     dda:	80 34       	cpi	r24, 0x40	; 64
     ddc:	91 05       	cpc	r25, r1
     dde:	a1 05       	cpc	r26, r1
     de0:	b1 05       	cpc	r27, r1
     de2:	39 f4       	brne	.+14     	; 0xdf2 <__pack_f+0x144>
     de4:	27 ff       	sbrs	r18, 7
     de6:	09 c0       	rjmp	.+18     	; 0xdfa <__pack_f+0x14c>
     de8:	20 5c       	subi	r18, 0xC0	; 192
     dea:	3f 4f       	sbci	r19, 0xFF	; 255
     dec:	4f 4f       	sbci	r20, 0xFF	; 255
     dee:	5f 4f       	sbci	r21, 0xFF	; 255
     df0:	04 c0       	rjmp	.+8      	; 0xdfa <__pack_f+0x14c>
     df2:	21 5c       	subi	r18, 0xC1	; 193
     df4:	3f 4f       	sbci	r19, 0xFF	; 255
     df6:	4f 4f       	sbci	r20, 0xFF	; 255
     df8:	5f 4f       	sbci	r21, 0xFF	; 255
     dfa:	57 ff       	sbrs	r21, 7
     dfc:	05 c0       	rjmp	.+10     	; 0xe08 <__pack_f+0x15a>
     dfe:	56 95       	lsr	r21
     e00:	47 95       	ror	r20
     e02:	37 95       	ror	r19
     e04:	27 95       	ror	r18
     e06:	31 96       	adiw	r30, 0x01	; 1
     e08:	87 e0       	ldi	r24, 0x07	; 7
     e0a:	56 95       	lsr	r21
     e0c:	47 95       	ror	r20
     e0e:	37 95       	ror	r19
     e10:	27 95       	ror	r18
     e12:	8a 95       	dec	r24
     e14:	d1 f7       	brne	.-12     	; 0xe0a <__pack_f+0x15c>
     e16:	06 c0       	rjmp	.+12     	; 0xe24 <__pack_f+0x176>
     e18:	20 e0       	ldi	r18, 0x00	; 0
     e1a:	30 e0       	ldi	r19, 0x00	; 0
     e1c:	40 e0       	ldi	r20, 0x00	; 0
     e1e:	50 e0       	ldi	r21, 0x00	; 0
     e20:	ef ef       	ldi	r30, 0xFF	; 255
     e22:	f0 e0       	ldi	r31, 0x00	; 0
     e24:	e2 2e       	mov	r14, r18
     e26:	f3 2e       	mov	r15, r19
     e28:	94 2f       	mov	r25, r20
     e2a:	9f 77       	andi	r25, 0x7F	; 127
     e2c:	80 2f       	mov	r24, r16
     e2e:	80 78       	andi	r24, 0x80	; 128
     e30:	89 2b       	or	r24, r25
     e32:	9e 2f       	mov	r25, r30
     e34:	97 95       	ror	r25
     e36:	99 27       	eor	r25, r25
     e38:	97 95       	ror	r25
     e3a:	8f 77       	andi	r24, 0x7F	; 127
     e3c:	08 2f       	mov	r16, r24
     e3e:	09 2b       	or	r16, r25
     e40:	9e 2f       	mov	r25, r30
     e42:	96 95       	lsr	r25
     e44:	81 2f       	mov	r24, r17
     e46:	80 78       	andi	r24, 0x80	; 128
     e48:	89 2b       	or	r24, r25
     e4a:	97 94       	ror	r9
     e4c:	99 24       	eor	r9, r9
     e4e:	97 94       	ror	r9
     e50:	8f 77       	andi	r24, 0x7F	; 127
     e52:	18 2f       	mov	r17, r24
     e54:	19 29       	or	r17, r9
     e56:	c8 01       	movw	r24, r16
     e58:	b7 01       	movw	r22, r14
     e5a:	1f 91       	pop	r17
     e5c:	0f 91       	pop	r16
     e5e:	ff 90       	pop	r15
     e60:	ef 90       	pop	r14
     e62:	df 90       	pop	r13
     e64:	cf 90       	pop	r12
     e66:	bf 90       	pop	r11
     e68:	af 90       	pop	r10
     e6a:	9f 90       	pop	r9
     e6c:	08 95       	ret

00000e6e <__unpack_f>:
     e6e:	cf 93       	push	r28
     e70:	df 93       	push	r29
     e72:	fc 01       	movw	r30, r24
     e74:	db 01       	movw	r26, r22
     e76:	20 81       	ld	r18, Z
     e78:	31 81       	ldd	r19, Z+1	; 0x01
     e7a:	92 81       	ldd	r25, Z+2	; 0x02
     e7c:	49 2f       	mov	r20, r25
     e7e:	4f 77       	andi	r20, 0x7F	; 127
     e80:	50 e0       	ldi	r21, 0x00	; 0
     e82:	99 1f       	adc	r25, r25
     e84:	99 27       	eor	r25, r25
     e86:	99 1f       	adc	r25, r25
     e88:	83 81       	ldd	r24, Z+3	; 0x03
     e8a:	e8 2f       	mov	r30, r24
     e8c:	ee 0f       	add	r30, r30
     e8e:	e9 2b       	or	r30, r25
     e90:	6e 2f       	mov	r22, r30
     e92:	70 e0       	ldi	r23, 0x00	; 0
     e94:	88 1f       	adc	r24, r24
     e96:	88 27       	eor	r24, r24
     e98:	88 1f       	adc	r24, r24
     e9a:	ed 01       	movw	r28, r26
     e9c:	89 83       	std	Y+1, r24	; 0x01
     e9e:	ee 23       	and	r30, r30
     ea0:	71 f5       	brne	.+92     	; 0xefe <__unpack_f+0x90>
     ea2:	21 15       	cp	r18, r1
     ea4:	31 05       	cpc	r19, r1
     ea6:	41 05       	cpc	r20, r1
     ea8:	51 05       	cpc	r21, r1
     eaa:	11 f4       	brne	.+4      	; 0xeb0 <__unpack_f+0x42>
     eac:	82 e0       	ldi	r24, 0x02	; 2
     eae:	2f c0       	rjmp	.+94     	; 0xf0e <__unpack_f+0xa0>
     eb0:	6e 57       	subi	r22, 0x7E	; 126
     eb2:	70 40       	sbci	r23, 0x00	; 0
     eb4:	fd 01       	movw	r30, r26
     eb6:	73 83       	std	Z+3, r23	; 0x03
     eb8:	62 83       	std	Z+2, r22	; 0x02
     eba:	67 e0       	ldi	r22, 0x07	; 7
     ebc:	22 0f       	add	r18, r18
     ebe:	33 1f       	adc	r19, r19
     ec0:	44 1f       	adc	r20, r20
     ec2:	55 1f       	adc	r21, r21
     ec4:	6a 95       	dec	r22
     ec6:	d1 f7       	brne	.-12     	; 0xebc <__unpack_f+0x4e>
     ec8:	83 e0       	ldi	r24, 0x03	; 3
     eca:	8c 93       	st	X, r24
     ecc:	0a c0       	rjmp	.+20     	; 0xee2 <__unpack_f+0x74>
     ece:	22 0f       	add	r18, r18
     ed0:	33 1f       	adc	r19, r19
     ed2:	44 1f       	adc	r20, r20
     ed4:	55 1f       	adc	r21, r21
     ed6:	ed 01       	movw	r28, r26
     ed8:	8a 81       	ldd	r24, Y+2	; 0x02
     eda:	9b 81       	ldd	r25, Y+3	; 0x03
     edc:	01 97       	sbiw	r24, 0x01	; 1
     ede:	9b 83       	std	Y+3, r25	; 0x03
     ee0:	8a 83       	std	Y+2, r24	; 0x02
     ee2:	20 30       	cpi	r18, 0x00	; 0
     ee4:	e0 e0       	ldi	r30, 0x00	; 0
     ee6:	3e 07       	cpc	r19, r30
     ee8:	e0 e0       	ldi	r30, 0x00	; 0
     eea:	4e 07       	cpc	r20, r30
     eec:	e0 e4       	ldi	r30, 0x40	; 64
     eee:	5e 07       	cpc	r21, r30
     ef0:	70 f3       	brcs	.-36     	; 0xece <__unpack_f+0x60>
     ef2:	ed 01       	movw	r28, r26
     ef4:	2c 83       	std	Y+4, r18	; 0x04
     ef6:	3d 83       	std	Y+5, r19	; 0x05
     ef8:	4e 83       	std	Y+6, r20	; 0x06
     efa:	5f 83       	std	Y+7, r21	; 0x07
     efc:	25 c0       	rjmp	.+74     	; 0xf48 <__unpack_f+0xda>
     efe:	ef 3f       	cpi	r30, 0xFF	; 255
     f00:	79 f4       	brne	.+30     	; 0xf20 <__unpack_f+0xb2>
     f02:	21 15       	cp	r18, r1
     f04:	31 05       	cpc	r19, r1
     f06:	41 05       	cpc	r20, r1
     f08:	51 05       	cpc	r21, r1
     f0a:	19 f4       	brne	.+6      	; 0xf12 <__unpack_f+0xa4>
     f0c:	84 e0       	ldi	r24, 0x04	; 4
     f0e:	8c 93       	st	X, r24
     f10:	1b c0       	rjmp	.+54     	; 0xf48 <__unpack_f+0xda>
     f12:	44 ff       	sbrs	r20, 4
     f14:	03 c0       	rjmp	.+6      	; 0xf1c <__unpack_f+0xae>
     f16:	81 e0       	ldi	r24, 0x01	; 1
     f18:	8c 93       	st	X, r24
     f1a:	11 c0       	rjmp	.+34     	; 0xf3e <__unpack_f+0xd0>
     f1c:	1c 92       	st	X, r1
     f1e:	0f c0       	rjmp	.+30     	; 0xf3e <__unpack_f+0xd0>
     f20:	6f 57       	subi	r22, 0x7F	; 127
     f22:	70 40       	sbci	r23, 0x00	; 0
     f24:	ed 01       	movw	r28, r26
     f26:	7b 83       	std	Y+3, r23	; 0x03
     f28:	6a 83       	std	Y+2, r22	; 0x02
     f2a:	83 e0       	ldi	r24, 0x03	; 3
     f2c:	8c 93       	st	X, r24
     f2e:	87 e0       	ldi	r24, 0x07	; 7
     f30:	22 0f       	add	r18, r18
     f32:	33 1f       	adc	r19, r19
     f34:	44 1f       	adc	r20, r20
     f36:	55 1f       	adc	r21, r21
     f38:	8a 95       	dec	r24
     f3a:	d1 f7       	brne	.-12     	; 0xf30 <__unpack_f+0xc2>
     f3c:	50 64       	ori	r21, 0x40	; 64
     f3e:	fd 01       	movw	r30, r26
     f40:	24 83       	std	Z+4, r18	; 0x04
     f42:	35 83       	std	Z+5, r19	; 0x05
     f44:	46 83       	std	Z+6, r20	; 0x06
     f46:	57 83       	std	Z+7, r21	; 0x07
     f48:	df 91       	pop	r29
     f4a:	cf 91       	pop	r28
     f4c:	08 95       	ret

00000f4e <do_rand>:
     f4e:	a0 e0       	ldi	r26, 0x00	; 0
     f50:	b0 e0       	ldi	r27, 0x00	; 0
     f52:	ec ea       	ldi	r30, 0xAC	; 172
     f54:	f7 e0       	ldi	r31, 0x07	; 7
     f56:	62 c0       	rjmp	.+196    	; 0x101c <__prologue_saves__+0x10>
     f58:	ec 01       	movw	r28, r24
     f5a:	68 81       	ld	r22, Y
     f5c:	79 81       	ldd	r23, Y+1	; 0x01
     f5e:	8a 81       	ldd	r24, Y+2	; 0x02
     f60:	9b 81       	ldd	r25, Y+3	; 0x03
     f62:	61 15       	cp	r22, r1
     f64:	71 05       	cpc	r23, r1
     f66:	81 05       	cpc	r24, r1
     f68:	91 05       	cpc	r25, r1
     f6a:	49 f4       	brne	.+18     	; 0xf7e <do_rand+0x30>
     f6c:	84 e2       	ldi	r24, 0x24	; 36
     f6e:	a8 2e       	mov	r10, r24
     f70:	89 ed       	ldi	r24, 0xD9	; 217
     f72:	b8 2e       	mov	r11, r24
     f74:	8b e5       	ldi	r24, 0x5B	; 91
     f76:	c8 2e       	mov	r12, r24
     f78:	87 e0       	ldi	r24, 0x07	; 7
     f7a:	d8 2e       	mov	r13, r24
     f7c:	02 c0       	rjmp	.+4      	; 0xf82 <do_rand+0x34>
     f7e:	5b 01       	movw	r10, r22
     f80:	6c 01       	movw	r12, r24
     f82:	c6 01       	movw	r24, r12
     f84:	b5 01       	movw	r22, r10
     f86:	2d e1       	ldi	r18, 0x1D	; 29
     f88:	33 ef       	ldi	r19, 0xF3	; 243
     f8a:	41 e0       	ldi	r20, 0x01	; 1
     f8c:	50 e0       	ldi	r21, 0x00	; 0
     f8e:	a8 d0       	rcall	.+336    	; 0x10e0 <__divmodsi4>
     f90:	27 ea       	ldi	r18, 0xA7	; 167
     f92:	31 e4       	ldi	r19, 0x41	; 65
     f94:	40 e0       	ldi	r20, 0x00	; 0
     f96:	50 e0       	ldi	r21, 0x00	; 0
     f98:	84 d0       	rcall	.+264    	; 0x10a2 <__mulsi3>
     f9a:	7b 01       	movw	r14, r22
     f9c:	8c 01       	movw	r16, r24
     f9e:	c6 01       	movw	r24, r12
     fa0:	b5 01       	movw	r22, r10
     fa2:	2d e1       	ldi	r18, 0x1D	; 29
     fa4:	33 ef       	ldi	r19, 0xF3	; 243
     fa6:	41 e0       	ldi	r20, 0x01	; 1
     fa8:	50 e0       	ldi	r21, 0x00	; 0
     faa:	9a d0       	rcall	.+308    	; 0x10e0 <__divmodsi4>
     fac:	ca 01       	movw	r24, r20
     fae:	b9 01       	movw	r22, r18
     fb0:	24 e1       	ldi	r18, 0x14	; 20
     fb2:	3b e0       	ldi	r19, 0x0B	; 11
     fb4:	40 e0       	ldi	r20, 0x00	; 0
     fb6:	50 e0       	ldi	r21, 0x00	; 0
     fb8:	74 d0       	rcall	.+232    	; 0x10a2 <__mulsi3>
     fba:	e6 1a       	sub	r14, r22
     fbc:	f7 0a       	sbc	r15, r23
     fbe:	08 0b       	sbc	r16, r24
     fc0:	19 0b       	sbc	r17, r25
     fc2:	17 ff       	sbrs	r17, 7
     fc4:	08 c0       	rjmp	.+16     	; 0xfd6 <do_rand+0x88>
     fc6:	8f ef       	ldi	r24, 0xFF	; 255
     fc8:	9f ef       	ldi	r25, 0xFF	; 255
     fca:	af ef       	ldi	r26, 0xFF	; 255
     fcc:	bf e7       	ldi	r27, 0x7F	; 127
     fce:	e8 0e       	add	r14, r24
     fd0:	f9 1e       	adc	r15, r25
     fd2:	0a 1f       	adc	r16, r26
     fd4:	1b 1f       	adc	r17, r27
     fd6:	e8 82       	st	Y, r14
     fd8:	f9 82       	std	Y+1, r15	; 0x01
     fda:	0a 83       	std	Y+2, r16	; 0x02
     fdc:	1b 83       	std	Y+3, r17	; 0x03
     fde:	c7 01       	movw	r24, r14
     fe0:	9f 77       	andi	r25, 0x7F	; 127
     fe2:	ea e0       	ldi	r30, 0x0A	; 10
     fe4:	cd b7       	in	r28, 0x3d	; 61
     fe6:	de b7       	in	r29, 0x3e	; 62
     fe8:	35 c0       	rjmp	.+106    	; 0x1054 <__epilogue_restores__+0x10>

00000fea <rand_r>:
     fea:	b1 df       	rcall	.-158    	; 0xf4e <do_rand>
     fec:	08 95       	ret

00000fee <rand>:
     fee:	84 e7       	ldi	r24, 0x74	; 116
     ff0:	91 e0       	ldi	r25, 0x01	; 1
     ff2:	ad df       	rcall	.-166    	; 0xf4e <do_rand>
     ff4:	08 95       	ret

00000ff6 <srand>:
     ff6:	a0 e0       	ldi	r26, 0x00	; 0
     ff8:	b0 e0       	ldi	r27, 0x00	; 0
     ffa:	80 93 74 01 	sts	0x0174, r24
     ffe:	90 93 75 01 	sts	0x0175, r25
    1002:	a0 93 76 01 	sts	0x0176, r26
    1006:	b0 93 77 01 	sts	0x0177, r27
    100a:	08 95       	ret

0000100c <__prologue_saves__>:
    100c:	2f 92       	push	r2
    100e:	3f 92       	push	r3
    1010:	4f 92       	push	r4
    1012:	5f 92       	push	r5
    1014:	6f 92       	push	r6
    1016:	7f 92       	push	r7
    1018:	8f 92       	push	r8
    101a:	9f 92       	push	r9
    101c:	af 92       	push	r10
    101e:	bf 92       	push	r11
    1020:	cf 92       	push	r12
    1022:	df 92       	push	r13
    1024:	ef 92       	push	r14
    1026:	ff 92       	push	r15
    1028:	0f 93       	push	r16
    102a:	1f 93       	push	r17
    102c:	cf 93       	push	r28
    102e:	df 93       	push	r29
    1030:	cd b7       	in	r28, 0x3d	; 61
    1032:	de b7       	in	r29, 0x3e	; 62
    1034:	ca 1b       	sub	r28, r26
    1036:	db 0b       	sbc	r29, r27
    1038:	0f b6       	in	r0, 0x3f	; 63
    103a:	f8 94       	cli
    103c:	de bf       	out	0x3e, r29	; 62
    103e:	0f be       	out	0x3f, r0	; 63
    1040:	cd bf       	out	0x3d, r28	; 61
    1042:	09 94       	ijmp

00001044 <__epilogue_restores__>:
    1044:	2a 88       	ldd	r2, Y+18	; 0x12
    1046:	39 88       	ldd	r3, Y+17	; 0x11
    1048:	48 88       	ldd	r4, Y+16	; 0x10
    104a:	5f 84       	ldd	r5, Y+15	; 0x0f
    104c:	6e 84       	ldd	r6, Y+14	; 0x0e
    104e:	7d 84       	ldd	r7, Y+13	; 0x0d
    1050:	8c 84       	ldd	r8, Y+12	; 0x0c
    1052:	9b 84       	ldd	r9, Y+11	; 0x0b
    1054:	aa 84       	ldd	r10, Y+10	; 0x0a
    1056:	b9 84       	ldd	r11, Y+9	; 0x09
    1058:	c8 84       	ldd	r12, Y+8	; 0x08
    105a:	df 80       	ldd	r13, Y+7	; 0x07
    105c:	ee 80       	ldd	r14, Y+6	; 0x06
    105e:	fd 80       	ldd	r15, Y+5	; 0x05
    1060:	0c 81       	ldd	r16, Y+4	; 0x04
    1062:	1b 81       	ldd	r17, Y+3	; 0x03
    1064:	aa 81       	ldd	r26, Y+2	; 0x02
    1066:	b9 81       	ldd	r27, Y+1	; 0x01
    1068:	ce 0f       	add	r28, r30
    106a:	d1 1d       	adc	r29, r1
    106c:	0f b6       	in	r0, 0x3f	; 63
    106e:	f8 94       	cli
    1070:	de bf       	out	0x3e, r29	; 62
    1072:	0f be       	out	0x3f, r0	; 63
    1074:	cd bf       	out	0x3d, r28	; 61
    1076:	ed 01       	movw	r28, r26
    1078:	08 95       	ret

0000107a <__eeprom_read_byte_1C1D1E>:
    107a:	e1 99       	sbic	0x1c, 1	; 28
    107c:	fe cf       	rjmp	.-4      	; 0x107a <__eeprom_read_byte_1C1D1E>
    107e:	bf bb       	out	0x1f, r27	; 31
    1080:	ae bb       	out	0x1e, r26	; 30
    1082:	e0 9a       	sbi	0x1c, 0	; 28
    1084:	11 96       	adiw	r26, 0x01	; 1
    1086:	0d b2       	in	r0, 0x1d	; 29
    1088:	08 95       	ret

0000108a <__eeprom_write_byte_1C1D1E>:
    108a:	e1 99       	sbic	0x1c, 1	; 28
    108c:	fe cf       	rjmp	.-4      	; 0x108a <__eeprom_write_byte_1C1D1E>
    108e:	bf bb       	out	0x1f, r27	; 31
    1090:	ae bb       	out	0x1e, r26	; 30
    1092:	0d ba       	out	0x1d, r0	; 29
    1094:	11 96       	adiw	r26, 0x01	; 1
    1096:	0f b6       	in	r0, 0x3f	; 63
    1098:	f8 94       	cli
    109a:	e2 9a       	sbi	0x1c, 2	; 28
    109c:	e1 9a       	sbi	0x1c, 1	; 28
    109e:	0f be       	out	0x3f, r0	; 63
    10a0:	08 95       	ret

000010a2 <__mulsi3>:
    10a2:	62 9f       	mul	r22, r18
    10a4:	d0 01       	movw	r26, r0
    10a6:	73 9f       	mul	r23, r19
    10a8:	f0 01       	movw	r30, r0
    10aa:	82 9f       	mul	r24, r18
    10ac:	e0 0d       	add	r30, r0
    10ae:	f1 1d       	adc	r31, r1
    10b0:	64 9f       	mul	r22, r20
    10b2:	e0 0d       	add	r30, r0
    10b4:	f1 1d       	adc	r31, r1
    10b6:	92 9f       	mul	r25, r18
    10b8:	f0 0d       	add	r31, r0
    10ba:	83 9f       	mul	r24, r19
    10bc:	f0 0d       	add	r31, r0
    10be:	74 9f       	mul	r23, r20
    10c0:	f0 0d       	add	r31, r0
    10c2:	65 9f       	mul	r22, r21
    10c4:	f0 0d       	add	r31, r0
    10c6:	99 27       	eor	r25, r25
    10c8:	72 9f       	mul	r23, r18
    10ca:	b0 0d       	add	r27, r0
    10cc:	e1 1d       	adc	r30, r1
    10ce:	f9 1f       	adc	r31, r25
    10d0:	63 9f       	mul	r22, r19
    10d2:	b0 0d       	add	r27, r0
    10d4:	e1 1d       	adc	r30, r1
    10d6:	f9 1f       	adc	r31, r25
    10d8:	bd 01       	movw	r22, r26
    10da:	cf 01       	movw	r24, r30
    10dc:	11 24       	eor	r1, r1
    10de:	08 95       	ret

000010e0 <__divmodsi4>:
    10e0:	97 fb       	bst	r25, 7
    10e2:	09 2e       	mov	r0, r25
    10e4:	05 26       	eor	r0, r21
    10e6:	0e d0       	rcall	.+28     	; 0x1104 <__divmodsi4_neg1>
    10e8:	57 fd       	sbrc	r21, 7
    10ea:	04 d0       	rcall	.+8      	; 0x10f4 <__divmodsi4_neg2>
    10ec:	14 d0       	rcall	.+40     	; 0x1116 <__udivmodsi4>
    10ee:	0a d0       	rcall	.+20     	; 0x1104 <__divmodsi4_neg1>
    10f0:	00 1c       	adc	r0, r0
    10f2:	38 f4       	brcc	.+14     	; 0x1102 <__divmodsi4_exit>

000010f4 <__divmodsi4_neg2>:
    10f4:	50 95       	com	r21
    10f6:	40 95       	com	r20
    10f8:	30 95       	com	r19
    10fa:	21 95       	neg	r18
    10fc:	3f 4f       	sbci	r19, 0xFF	; 255
    10fe:	4f 4f       	sbci	r20, 0xFF	; 255
    1100:	5f 4f       	sbci	r21, 0xFF	; 255

00001102 <__divmodsi4_exit>:
    1102:	08 95       	ret

00001104 <__divmodsi4_neg1>:
    1104:	f6 f7       	brtc	.-4      	; 0x1102 <__divmodsi4_exit>
    1106:	90 95       	com	r25
    1108:	80 95       	com	r24
    110a:	70 95       	com	r23
    110c:	61 95       	neg	r22
    110e:	7f 4f       	sbci	r23, 0xFF	; 255
    1110:	8f 4f       	sbci	r24, 0xFF	; 255
    1112:	9f 4f       	sbci	r25, 0xFF	; 255
    1114:	08 95       	ret

00001116 <__udivmodsi4>:
    1116:	a1 e2       	ldi	r26, 0x21	; 33
    1118:	1a 2e       	mov	r1, r26
    111a:	aa 1b       	sub	r26, r26
    111c:	bb 1b       	sub	r27, r27
    111e:	fd 01       	movw	r30, r26
    1120:	0d c0       	rjmp	.+26     	; 0x113c <__udivmodsi4_ep>

00001122 <__udivmodsi4_loop>:
    1122:	aa 1f       	adc	r26, r26
    1124:	bb 1f       	adc	r27, r27
    1126:	ee 1f       	adc	r30, r30
    1128:	ff 1f       	adc	r31, r31
    112a:	a2 17       	cp	r26, r18
    112c:	b3 07       	cpc	r27, r19
    112e:	e4 07       	cpc	r30, r20
    1130:	f5 07       	cpc	r31, r21
    1132:	20 f0       	brcs	.+8      	; 0x113c <__udivmodsi4_ep>
    1134:	a2 1b       	sub	r26, r18
    1136:	b3 0b       	sbc	r27, r19
    1138:	e4 0b       	sbc	r30, r20
    113a:	f5 0b       	sbc	r31, r21

0000113c <__udivmodsi4_ep>:
    113c:	66 1f       	adc	r22, r22
    113e:	77 1f       	adc	r23, r23
    1140:	88 1f       	adc	r24, r24
    1142:	99 1f       	adc	r25, r25
    1144:	1a 94       	dec	r1
    1146:	69 f7       	brne	.-38     	; 0x1122 <__udivmodsi4_loop>
    1148:	60 95       	com	r22
    114a:	70 95       	com	r23
    114c:	80 95       	com	r24
    114e:	90 95       	com	r25
    1150:	9b 01       	movw	r18, r22
    1152:	ac 01       	movw	r20, r24
    1154:	bd 01       	movw	r22, r26
    1156:	cf 01       	movw	r24, r30
    1158:	08 95       	ret

0000115a <_exit>:
    115a:	ff cf       	rjmp	.-2      	; 0x115a <_exit>
